
u_boot_elf：     文件格式 elf64-littleaarch64


Disassembly of section .text:

0000000000200000 <__image_copy_start>:
  200000:	1400000a 	b	200028 <reset>
  200004:	d503201f 	nop

0000000000200008 <_TEXT_BASE>:
  200008:	00200000 	.word	0x00200000
  20000c:	00000000 	.word	0x00000000

0000000000200010 <_end_ofs>:
  200010:	00002e18 	.word	0x00002e18
  200014:	00000000 	.word	0x00000000

0000000000200018 <_bss_start_ofs>:
  200018:	00002e18 	.word	0x00002e18
  20001c:	00000000 	.word	0x00000000

0000000000200020 <_bss_end_ofs>:
  200020:	00003941 	.word	0x00003941
  200024:	00000000 	.word	0x00000000

0000000000200028 <reset>:
  200028:	1400004e 	b	200160 <save_boot_params>

000000000020002c <save_boot_params_ret>:
  20002c:	10003ea0 	adr	x0, 200800 <vectors>
  200030:	d5384241 	mrs	x1, currentel
  200034:	f100303f 	cmp	x1, #0xc
  200038:	540000a0 	b.eq	20004c <save_boot_params_ret+0x20>
  20003c:	f100203f 	cmp	x1, #0x8
  200040:	54000160 	b.eq	20006c <save_boot_params_ret+0x40>
  200044:	f100103f 	cmp	x1, #0x4
  200048:	540001a0 	b.eq	20007c <save_boot_params_ret+0x50>
  20004c:	d51ec000 	msr	vbar_el3, x0
  200050:	d53e1100 	mrs	x0, scr_el3
  200054:	b2400c00 	orr	x0, x0, #0xf
  200058:	d51e1100 	msr	scr_el3, x0
  20005c:	d51e115f 	msr	cptr_el3, xzr
  200060:	58006e40 	ldr	x0, 200e28 <hang+0x8>
  200064:	d51be000 	msr	cntfrq_el0, x0
  200068:	14000008 	b	200088 <save_boot_params_ret+0x5c>
  20006c:	d51cc000 	msr	vbar_el2, x0
  200070:	d2867fe0 	mov	x0, #0x33ff                	// #13311
  200074:	d51c1140 	msr	cptr_el2, x0
  200078:	14000004 	b	200088 <save_boot_params_ret+0x5c>
  20007c:	d518c000 	msr	vbar_el1, x0
  200080:	d2a00600 	mov	x0, #0x300000              	// #3145728
  200084:	d5181040 	msr	cpacr_el1, x0
  200088:	d5384241 	mrs	x1, currentel
  20008c:	f100303f 	cmp	x1, #0xc
  200090:	540000a0 	b.eq	2000a4 <save_boot_params_ret+0x78>
  200094:	f100203f 	cmp	x1, #0x8
  200098:	540000c0 	b.eq	2000b0 <save_boot_params_ret+0x84>
  20009c:	f100103f 	cmp	x1, #0x4
  2000a0:	54000080 	b.eq	2000b0 <save_boot_params_ret+0x84>
  2000a4:	d539f220 	mrs	x0, s3_1_c15_c2_1
  2000a8:	b27a0000 	orr	x0, x0, #0x40
  2000ac:	d519f220 	msr	s3_1_c15_c2_1, x0
  2000b0:	94000003 	bl	2000bc <apply_core_errata>
  2000b4:	9400000b 	bl	2000e0 <lowlevel_init>

00000000002000b8 <master_cpu>:
  2000b8:	9400030c 	bl	200ce8 <_main>

00000000002000bc <apply_core_errata>:
  2000bc:	aa1e03fd 	mov	x29, x30
  2000c0:	d5380000 	mrs	x0, midr_el1
  2000c4:	d344fc00 	lsr	x0, x0, #4
  2000c8:	92402c00 	and	x0, x0, #0xfff
  2000cc:	f1341c1f 	cmp	x0, #0xd07
  2000d0:	54000060 	b.eq	2000dc <apply_a57_core_errata>
  2000d4:	aa1d03fe 	mov	x30, x29
  2000d8:	d65f03c0 	ret

00000000002000dc <apply_a57_core_errata>:
  2000dc:	17fffffe 	b	2000d4 <apply_core_errata+0x18>

00000000002000e0 <lowlevel_init>:
  2000e0:	aa1e03fd 	mov	x29, x30
  2000e4:	58006a60 	ldr	x0, 200e30 <hang+0x10>
  2000e8:	9400001f 	bl	200164 <gic_init_secure>
  2000ec:	58006a60 	ldr	x0, 200e38 <hang+0x18>
  2000f0:	9400002a 	bl	200198 <gic_init_secure_percpu>
  2000f4:	d5384240 	mrs	x0, currentel
  2000f8:	f100201f 	cmp	x0, #0x8
  2000fc:	540000a1 	b.ne	200110 <end>
  200100:	d53c1109 	mrs	x9, hcr_el2
  200104:	b27d0929 	orr	x9, x9, #0x38
  200108:	b2650129 	orr	x9, x9, #0x8000000
  20010c:	d51c1109 	msr	hcr_el2, x9

0000000000200110 <end>:
  200110:	d503201f 	nop
  200114:	aa1d03fe 	mov	x30, x29
  200118:	d65f03c0 	ret

000000000020011c <smp_kick_all_cpus>:
  20011c:	580068a0 	ldr	x0, 200e30 <hang+0x10>
  200120:	14000056 	b	200278 <gic_kick_secondary_cpus>
  200124:	d65f03c0 	ret

0000000000200128 <c_runtime_cpu_setup>:
  200128:	100036c0 	adr	x0, 200800 <vectors>
  20012c:	d5384241 	mrs	x1, currentel
  200130:	f100303f 	cmp	x1, #0xc
  200134:	540000a0 	b.eq	200148 <c_runtime_cpu_setup+0x20>
  200138:	f100203f 	cmp	x1, #0x8
  20013c:	540000a0 	b.eq	200150 <c_runtime_cpu_setup+0x28>
  200140:	f100103f 	cmp	x1, #0x4
  200144:	540000a0 	b.eq	200158 <c_runtime_cpu_setup+0x30>
  200148:	d51ec000 	msr	vbar_el3, x0
  20014c:	14000004 	b	20015c <c_runtime_cpu_setup+0x34>
  200150:	d51cc000 	msr	vbar_el2, x0
  200154:	14000002 	b	20015c <c_runtime_cpu_setup+0x34>
  200158:	d518c000 	msr	vbar_el1, x0
  20015c:	d65f03c0 	ret

0000000000200160 <save_boot_params>:
  200160:	17ffffb3 	b	20002c <save_boot_params_ret>

0000000000200164 <gic_init_secure>:
  200164:	528006e9 	mov	w9, #0x37                  	// #55
  200168:	b9000009 	str	w9, [x0]
  20016c:	b9400409 	ldr	w9, [x0,#4]
  200170:	1200112a 	and	w10, w9, #0x1f
  200174:	3400010a 	cbz	w10, 200194 <gic_init_secure+0x30>
  200178:	9102100b 	add	x11, x0, #0x84
  20017c:	9134100c 	add	x12, x0, #0xd04
  200180:	12800009 	mov	w9, #0xffffffff            	// #-1
  200184:	b8004569 	str	w9, [x11],#4
  200188:	b800459f 	str	wzr, [x12],#4
  20018c:	5100054a 	sub	w10, w10, #0x1
  200190:	35ffffaa 	cbnz	w10, 200184 <gic_init_secure+0x20>
  200194:	d65f03c0 	ret

0000000000200198 <gic_init_secure_percpu>:
  200198:	d53800aa 	mrs	x10, mpidr_el1
  20019c:	d360fd49 	lsr	x9, x10, #32
  2001a0:	b3681d2a 	bfi	x10, x9, #24, #8
  2001a4:	aa0003e9 	mov	x9, x0
  2001a8:	f940052b 	ldr	x11, [x9,#8]
  2001ac:	d360fd6b 	lsr	x11, x11, #32
  2001b0:	6b0b015f 	cmp	w10, w11
  2001b4:	54000060 	b.eq	2001c0 <gic_init_secure_percpu+0x28>
  2001b8:	91408129 	add	x9, x9, #0x20, lsl #12
  2001bc:	17fffffb 	b	2001a8 <gic_init_secure_percpu+0x10>
  2001c0:	1280004a 	mov	w10, #0xfffffffd            	// #-3
  2001c4:	b940152b 	ldr	w11, [x9,#20]
  2001c8:	0a0a016b 	and	w11, w11, w10
  2001cc:	b900152b 	str	w11, [x9,#20]
  2001d0:	d5033e9f 	dsb	st
  2001d4:	d5033fdf 	isb
  2001d8:	b940152a 	ldr	w10, [x9,#20]
  2001dc:	3717ffea 	tbnz	w10, #2, 2001d8 <gic_init_secure_percpu+0x40>
  2001e0:	9140412a 	add	x10, x9, #0x10, lsl #12
  2001e4:	1280000b 	mov	w11, #0xffffffff            	// #-1
  2001e8:	b900814b 	str	w11, [x10,#128]
  2001ec:	b90d015f 	str	wzr, [x10,#3328]
  2001f0:	5280002b 	mov	w11, #0x1                   	// #1
  2001f4:	b901014b 	str	w11, [x10,#256]
  2001f8:	d5384240 	mrs	x0, currentel
  2001fc:	f100301f 	cmp	x0, #0xc
  200200:	540000a0 	b.eq	200214 <el3_sre>
  200204:	f100201f 	cmp	x0, #0x8
  200208:	540000e0 	b.eq	200224 <el2_sre>
  20020c:	f100101f 	cmp	x0, #0x4
  200210:	54000120 	b.eq	200234 <el1_sre>

0000000000200214 <el3_sre>:
  200214:	d53eccaa 	mrs	x10, s3_6_c12_c12_5
  200218:	b2400d4a 	orr	x10, x10, #0xf
  20021c:	d51eccaa 	msr	s3_6_c12_c12_5, x10
  200220:	d5033fdf 	isb

0000000000200224 <el2_sre>:
  200224:	d53cc9aa 	mrs	x10, s3_4_c12_c9_5
  200228:	b2400d4a 	orr	x10, x10, #0xf
  20022c:	d51cc9aa 	msr	s3_4_c12_c9_5, x10
  200230:	d5033fdf 	isb

0000000000200234 <el1_sre>:
  200234:	d5384240 	mrs	x0, currentel
  200238:	f100301f 	cmp	x0, #0xc
  20023c:	540000c1 	b.ne	200254 <el1_ctlr>

0000000000200240 <el3_ctlr>:
  200240:	d280006a 	mov	x10, #0x3                   	// #3
  200244:	d51eccea 	msr	s3_6_c12_c12_7, x10
  200248:	d5033fdf 	isb
  20024c:	d51ecc9f 	msr	s3_6_c12_c12_4, xzr
  200250:	d5033fdf 	isb

0000000000200254 <el1_ctlr>:
  200254:	d280006a 	mov	x10, #0x3                   	// #3
  200258:	d518ccea 	msr	s3_0_c12_c12_7, x10
  20025c:	d5033fdf 	isb
  200260:	d518cc9f 	msr	s3_0_c12_c12_4, xzr
  200264:	d5033fdf 	isb
  200268:	d2801e0a 	mov	x10, #0xf0                  	// #240
  20026c:	d518460a 	msr	s3_0_c4_c6_0, x10
  200270:	d5033fdf 	isb
  200274:	d65f03c0 	ret

0000000000200278 <gic_kick_secondary_cpus>:
  200278:	d2c02009 	mov	x9, #0x10000000000         	// #1099511627776
  20027c:	d518cbc9 	msr	s3_0_c12_c11_6, x9
  200280:	d5033fdf 	isb
  200284:	d65f03c0 	ret
  200288:	d503201f 	nop
  20028c:	d503201f 	nop
  200290:	d503201f 	nop
  200294:	d503201f 	nop
  200298:	d503201f 	nop
  20029c:	d503201f 	nop
  2002a0:	d503201f 	nop
  2002a4:	d503201f 	nop
  2002a8:	d503201f 	nop
  2002ac:	d503201f 	nop
  2002b0:	d503201f 	nop
  2002b4:	d503201f 	nop
  2002b8:	d503201f 	nop
  2002bc:	d503201f 	nop
  2002c0:	d503201f 	nop
  2002c4:	d503201f 	nop
  2002c8:	d503201f 	nop
  2002cc:	d503201f 	nop
  2002d0:	d503201f 	nop
  2002d4:	d503201f 	nop
  2002d8:	d503201f 	nop
  2002dc:	d503201f 	nop
  2002e0:	d503201f 	nop
  2002e4:	d503201f 	nop
  2002e8:	d503201f 	nop
  2002ec:	d503201f 	nop
  2002f0:	d503201f 	nop
  2002f4:	d503201f 	nop
  2002f8:	d503201f 	nop
  2002fc:	d503201f 	nop
  200300:	d503201f 	nop
  200304:	d503201f 	nop
  200308:	d503201f 	nop
  20030c:	d503201f 	nop
  200310:	d503201f 	nop
  200314:	d503201f 	nop
  200318:	d503201f 	nop
  20031c:	d503201f 	nop
  200320:	d503201f 	nop
  200324:	d503201f 	nop
  200328:	d503201f 	nop
  20032c:	d503201f 	nop
  200330:	d503201f 	nop
  200334:	d503201f 	nop
  200338:	d503201f 	nop
  20033c:	d503201f 	nop
  200340:	d503201f 	nop
  200344:	d503201f 	nop
  200348:	d503201f 	nop
  20034c:	d503201f 	nop
  200350:	d503201f 	nop
  200354:	d503201f 	nop
  200358:	d503201f 	nop
  20035c:	d503201f 	nop
  200360:	d503201f 	nop
  200364:	d503201f 	nop
  200368:	d503201f 	nop
  20036c:	d503201f 	nop
  200370:	d503201f 	nop
  200374:	d503201f 	nop
  200378:	d503201f 	nop
  20037c:	d503201f 	nop
  200380:	d503201f 	nop
  200384:	d503201f 	nop
  200388:	d503201f 	nop
  20038c:	d503201f 	nop
  200390:	d503201f 	nop
  200394:	d503201f 	nop
  200398:	d503201f 	nop
  20039c:	d503201f 	nop
  2003a0:	d503201f 	nop
  2003a4:	d503201f 	nop
  2003a8:	d503201f 	nop
  2003ac:	d503201f 	nop
  2003b0:	d503201f 	nop
  2003b4:	d503201f 	nop
  2003b8:	d503201f 	nop
  2003bc:	d503201f 	nop
  2003c0:	d503201f 	nop
  2003c4:	d503201f 	nop
  2003c8:	d503201f 	nop
  2003cc:	d503201f 	nop
  2003d0:	d503201f 	nop
  2003d4:	d503201f 	nop
  2003d8:	d503201f 	nop
  2003dc:	d503201f 	nop
  2003e0:	d503201f 	nop
  2003e4:	d503201f 	nop
  2003e8:	d503201f 	nop
  2003ec:	d503201f 	nop
  2003f0:	d503201f 	nop
  2003f4:	d503201f 	nop
  2003f8:	d503201f 	nop
  2003fc:	d503201f 	nop
  200400:	d503201f 	nop
  200404:	d503201f 	nop
  200408:	d503201f 	nop
  20040c:	d503201f 	nop
  200410:	d503201f 	nop
  200414:	d503201f 	nop
  200418:	d503201f 	nop
  20041c:	d503201f 	nop
  200420:	d503201f 	nop
  200424:	d503201f 	nop
  200428:	d503201f 	nop
  20042c:	d503201f 	nop
  200430:	d503201f 	nop
  200434:	d503201f 	nop
  200438:	d503201f 	nop
  20043c:	d503201f 	nop
  200440:	d503201f 	nop
  200444:	d503201f 	nop
  200448:	d503201f 	nop
  20044c:	d503201f 	nop
  200450:	d503201f 	nop
  200454:	d503201f 	nop
  200458:	d503201f 	nop
  20045c:	d503201f 	nop
  200460:	d503201f 	nop
  200464:	d503201f 	nop
  200468:	d503201f 	nop
  20046c:	d503201f 	nop
  200470:	d503201f 	nop
  200474:	d503201f 	nop
  200478:	d503201f 	nop
  20047c:	d503201f 	nop
  200480:	d503201f 	nop
  200484:	d503201f 	nop
  200488:	d503201f 	nop
  20048c:	d503201f 	nop
  200490:	d503201f 	nop
  200494:	d503201f 	nop
  200498:	d503201f 	nop
  20049c:	d503201f 	nop
  2004a0:	d503201f 	nop
  2004a4:	d503201f 	nop
  2004a8:	d503201f 	nop
  2004ac:	d503201f 	nop
  2004b0:	d503201f 	nop
  2004b4:	d503201f 	nop
  2004b8:	d503201f 	nop
  2004bc:	d503201f 	nop
  2004c0:	d503201f 	nop
  2004c4:	d503201f 	nop
  2004c8:	d503201f 	nop
  2004cc:	d503201f 	nop
  2004d0:	d503201f 	nop
  2004d4:	d503201f 	nop
  2004d8:	d503201f 	nop
  2004dc:	d503201f 	nop
  2004e0:	d503201f 	nop
  2004e4:	d503201f 	nop
  2004e8:	d503201f 	nop
  2004ec:	d503201f 	nop
  2004f0:	d503201f 	nop
  2004f4:	d503201f 	nop
  2004f8:	d503201f 	nop
  2004fc:	d503201f 	nop
  200500:	d503201f 	nop
  200504:	d503201f 	nop
  200508:	d503201f 	nop
  20050c:	d503201f 	nop
  200510:	d503201f 	nop
  200514:	d503201f 	nop
  200518:	d503201f 	nop
  20051c:	d503201f 	nop
  200520:	d503201f 	nop
  200524:	d503201f 	nop
  200528:	d503201f 	nop
  20052c:	d503201f 	nop
  200530:	d503201f 	nop
  200534:	d503201f 	nop
  200538:	d503201f 	nop
  20053c:	d503201f 	nop
  200540:	d503201f 	nop
  200544:	d503201f 	nop
  200548:	d503201f 	nop
  20054c:	d503201f 	nop
  200550:	d503201f 	nop
  200554:	d503201f 	nop
  200558:	d503201f 	nop
  20055c:	d503201f 	nop
  200560:	d503201f 	nop
  200564:	d503201f 	nop
  200568:	d503201f 	nop
  20056c:	d503201f 	nop
  200570:	d503201f 	nop
  200574:	d503201f 	nop
  200578:	d503201f 	nop
  20057c:	d503201f 	nop
  200580:	d503201f 	nop
  200584:	d503201f 	nop
  200588:	d503201f 	nop
  20058c:	d503201f 	nop
  200590:	d503201f 	nop
  200594:	d503201f 	nop
  200598:	d503201f 	nop
  20059c:	d503201f 	nop
  2005a0:	d503201f 	nop
  2005a4:	d503201f 	nop
  2005a8:	d503201f 	nop
  2005ac:	d503201f 	nop
  2005b0:	d503201f 	nop
  2005b4:	d503201f 	nop
  2005b8:	d503201f 	nop
  2005bc:	d503201f 	nop
  2005c0:	d503201f 	nop
  2005c4:	d503201f 	nop
  2005c8:	d503201f 	nop
  2005cc:	d503201f 	nop
  2005d0:	d503201f 	nop
  2005d4:	d503201f 	nop
  2005d8:	d503201f 	nop
  2005dc:	d503201f 	nop
  2005e0:	d503201f 	nop
  2005e4:	d503201f 	nop
  2005e8:	d503201f 	nop
  2005ec:	d503201f 	nop
  2005f0:	d503201f 	nop
  2005f4:	d503201f 	nop
  2005f8:	d503201f 	nop
  2005fc:	d503201f 	nop
  200600:	d503201f 	nop
  200604:	d503201f 	nop
  200608:	d503201f 	nop
  20060c:	d503201f 	nop
  200610:	d503201f 	nop
  200614:	d503201f 	nop
  200618:	d503201f 	nop
  20061c:	d503201f 	nop
  200620:	d503201f 	nop
  200624:	d503201f 	nop
  200628:	d503201f 	nop
  20062c:	d503201f 	nop
  200630:	d503201f 	nop
  200634:	d503201f 	nop
  200638:	d503201f 	nop
  20063c:	d503201f 	nop
  200640:	d503201f 	nop
  200644:	d503201f 	nop
  200648:	d503201f 	nop
  20064c:	d503201f 	nop
  200650:	d503201f 	nop
  200654:	d503201f 	nop
  200658:	d503201f 	nop
  20065c:	d503201f 	nop
  200660:	d503201f 	nop
  200664:	d503201f 	nop
  200668:	d503201f 	nop
  20066c:	d503201f 	nop
  200670:	d503201f 	nop
  200674:	d503201f 	nop
  200678:	d503201f 	nop
  20067c:	d503201f 	nop
  200680:	d503201f 	nop
  200684:	d503201f 	nop
  200688:	d503201f 	nop
  20068c:	d503201f 	nop
  200690:	d503201f 	nop
  200694:	d503201f 	nop
  200698:	d503201f 	nop
  20069c:	d503201f 	nop
  2006a0:	d503201f 	nop
  2006a4:	d503201f 	nop
  2006a8:	d503201f 	nop
  2006ac:	d503201f 	nop
  2006b0:	d503201f 	nop
  2006b4:	d503201f 	nop
  2006b8:	d503201f 	nop
  2006bc:	d503201f 	nop
  2006c0:	d503201f 	nop
  2006c4:	d503201f 	nop
  2006c8:	d503201f 	nop
  2006cc:	d503201f 	nop
  2006d0:	d503201f 	nop
  2006d4:	d503201f 	nop
  2006d8:	d503201f 	nop
  2006dc:	d503201f 	nop
  2006e0:	d503201f 	nop
  2006e4:	d503201f 	nop
  2006e8:	d503201f 	nop
  2006ec:	d503201f 	nop
  2006f0:	d503201f 	nop
  2006f4:	d503201f 	nop
  2006f8:	d503201f 	nop
  2006fc:	d503201f 	nop
  200700:	d503201f 	nop
  200704:	d503201f 	nop
  200708:	d503201f 	nop
  20070c:	d503201f 	nop
  200710:	d503201f 	nop
  200714:	d503201f 	nop
  200718:	d503201f 	nop
  20071c:	d503201f 	nop
  200720:	d503201f 	nop
  200724:	d503201f 	nop
  200728:	d503201f 	nop
  20072c:	d503201f 	nop
  200730:	d503201f 	nop
  200734:	d503201f 	nop
  200738:	d503201f 	nop
  20073c:	d503201f 	nop
  200740:	d503201f 	nop
  200744:	d503201f 	nop
  200748:	d503201f 	nop
  20074c:	d503201f 	nop
  200750:	d503201f 	nop
  200754:	d503201f 	nop
  200758:	d503201f 	nop
  20075c:	d503201f 	nop
  200760:	d503201f 	nop
  200764:	d503201f 	nop
  200768:	d503201f 	nop
  20076c:	d503201f 	nop
  200770:	d503201f 	nop
  200774:	d503201f 	nop
  200778:	d503201f 	nop
  20077c:	d503201f 	nop
  200780:	d503201f 	nop
  200784:	d503201f 	nop
  200788:	d503201f 	nop
  20078c:	d503201f 	nop
  200790:	d503201f 	nop
  200794:	d503201f 	nop
  200798:	d503201f 	nop
  20079c:	d503201f 	nop
  2007a0:	d503201f 	nop
  2007a4:	d503201f 	nop
  2007a8:	d503201f 	nop
  2007ac:	d503201f 	nop
  2007b0:	d503201f 	nop
  2007b4:	d503201f 	nop
  2007b8:	d503201f 	nop
  2007bc:	d503201f 	nop
  2007c0:	d503201f 	nop
  2007c4:	d503201f 	nop
  2007c8:	d503201f 	nop
  2007cc:	d503201f 	nop
  2007d0:	d503201f 	nop
  2007d4:	d503201f 	nop
  2007d8:	d503201f 	nop
  2007dc:	d503201f 	nop
  2007e0:	d503201f 	nop
  2007e4:	d503201f 	nop
  2007e8:	d503201f 	nop
  2007ec:	d503201f 	nop
  2007f0:	d503201f 	nop
  2007f4:	d503201f 	nop
  2007f8:	d503201f 	nop
  2007fc:	d503201f 	nop

0000000000200800 <vectors>:
  200800:	a9bf7bfd 	stp	x29, x30, [sp,#-16]!
  200804:	940000e2 	bl	200b8c <_exception_entry>
  200808:	1400011a 	b	200c70 <exception_exit>
  20080c:	d503201f 	nop
  200810:	d503201f 	nop
  200814:	d503201f 	nop
  200818:	d503201f 	nop
  20081c:	d503201f 	nop
  200820:	d503201f 	nop
  200824:	d503201f 	nop
  200828:	d503201f 	nop
  20082c:	d503201f 	nop
  200830:	d503201f 	nop
  200834:	d503201f 	nop
  200838:	d503201f 	nop
  20083c:	d503201f 	nop
  200840:	d503201f 	nop
  200844:	d503201f 	nop
  200848:	d503201f 	nop
  20084c:	d503201f 	nop
  200850:	d503201f 	nop
  200854:	d503201f 	nop
  200858:	d503201f 	nop
  20085c:	d503201f 	nop
  200860:	d503201f 	nop
  200864:	d503201f 	nop
  200868:	d503201f 	nop
  20086c:	d503201f 	nop
  200870:	d503201f 	nop
  200874:	d503201f 	nop
  200878:	d503201f 	nop
  20087c:	d503201f 	nop
  200880:	a9bf7bfd 	stp	x29, x30, [sp,#-16]!
  200884:	940000c2 	bl	200b8c <_exception_entry>
  200888:	140000fa 	b	200c70 <exception_exit>
  20088c:	d503201f 	nop
  200890:	d503201f 	nop
  200894:	d503201f 	nop
  200898:	d503201f 	nop
  20089c:	d503201f 	nop
  2008a0:	d503201f 	nop
  2008a4:	d503201f 	nop
  2008a8:	d503201f 	nop
  2008ac:	d503201f 	nop
  2008b0:	d503201f 	nop
  2008b4:	d503201f 	nop
  2008b8:	d503201f 	nop
  2008bc:	d503201f 	nop
  2008c0:	d503201f 	nop
  2008c4:	d503201f 	nop
  2008c8:	d503201f 	nop
  2008cc:	d503201f 	nop
  2008d0:	d503201f 	nop
  2008d4:	d503201f 	nop
  2008d8:	d503201f 	nop
  2008dc:	d503201f 	nop
  2008e0:	d503201f 	nop
  2008e4:	d503201f 	nop
  2008e8:	d503201f 	nop
  2008ec:	d503201f 	nop
  2008f0:	d503201f 	nop
  2008f4:	d503201f 	nop
  2008f8:	d503201f 	nop
  2008fc:	d503201f 	nop
  200900:	a9bf7bfd 	stp	x29, x30, [sp,#-16]!
  200904:	940000a2 	bl	200b8c <_exception_entry>
  200908:	140000da 	b	200c70 <exception_exit>
  20090c:	d503201f 	nop
  200910:	d503201f 	nop
  200914:	d503201f 	nop
  200918:	d503201f 	nop
  20091c:	d503201f 	nop
  200920:	d503201f 	nop
  200924:	d503201f 	nop
  200928:	d503201f 	nop
  20092c:	d503201f 	nop
  200930:	d503201f 	nop
  200934:	d503201f 	nop
  200938:	d503201f 	nop
  20093c:	d503201f 	nop
  200940:	d503201f 	nop
  200944:	d503201f 	nop
  200948:	d503201f 	nop
  20094c:	d503201f 	nop
  200950:	d503201f 	nop
  200954:	d503201f 	nop
  200958:	d503201f 	nop
  20095c:	d503201f 	nop
  200960:	d503201f 	nop
  200964:	d503201f 	nop
  200968:	d503201f 	nop
  20096c:	d503201f 	nop
  200970:	d503201f 	nop
  200974:	d503201f 	nop
  200978:	d503201f 	nop
  20097c:	d503201f 	nop
  200980:	a9bf7bfd 	stp	x29, x30, [sp,#-16]!
  200984:	94000082 	bl	200b8c <_exception_entry>
  200988:	140000ba 	b	200c70 <exception_exit>
  20098c:	d503201f 	nop
  200990:	d503201f 	nop
  200994:	d503201f 	nop
  200998:	d503201f 	nop
  20099c:	d503201f 	nop
  2009a0:	d503201f 	nop
  2009a4:	d503201f 	nop
  2009a8:	d503201f 	nop
  2009ac:	d503201f 	nop
  2009b0:	d503201f 	nop
  2009b4:	d503201f 	nop
  2009b8:	d503201f 	nop
  2009bc:	d503201f 	nop
  2009c0:	d503201f 	nop
  2009c4:	d503201f 	nop
  2009c8:	d503201f 	nop
  2009cc:	d503201f 	nop
  2009d0:	d503201f 	nop
  2009d4:	d503201f 	nop
  2009d8:	d503201f 	nop
  2009dc:	d503201f 	nop
  2009e0:	d503201f 	nop
  2009e4:	d503201f 	nop
  2009e8:	d503201f 	nop
  2009ec:	d503201f 	nop
  2009f0:	d503201f 	nop
  2009f4:	d503201f 	nop
  2009f8:	d503201f 	nop
  2009fc:	d503201f 	nop
  200a00:	a9bf7bfd 	stp	x29, x30, [sp,#-16]!
  200a04:	94000062 	bl	200b8c <_exception_entry>
  200a08:	1400009a 	b	200c70 <exception_exit>
  200a0c:	d503201f 	nop
  200a10:	d503201f 	nop
  200a14:	d503201f 	nop
  200a18:	d503201f 	nop
  200a1c:	d503201f 	nop
  200a20:	d503201f 	nop
  200a24:	d503201f 	nop
  200a28:	d503201f 	nop
  200a2c:	d503201f 	nop
  200a30:	d503201f 	nop
  200a34:	d503201f 	nop
  200a38:	d503201f 	nop
  200a3c:	d503201f 	nop
  200a40:	d503201f 	nop
  200a44:	d503201f 	nop
  200a48:	d503201f 	nop
  200a4c:	d503201f 	nop
  200a50:	d503201f 	nop
  200a54:	d503201f 	nop
  200a58:	d503201f 	nop
  200a5c:	d503201f 	nop
  200a60:	d503201f 	nop
  200a64:	d503201f 	nop
  200a68:	d503201f 	nop
  200a6c:	d503201f 	nop
  200a70:	d503201f 	nop
  200a74:	d503201f 	nop
  200a78:	d503201f 	nop
  200a7c:	d503201f 	nop
  200a80:	a9bf7bfd 	stp	x29, x30, [sp,#-16]!
  200a84:	94000042 	bl	200b8c <_exception_entry>
  200a88:	94000504 	bl	201e98 <my_do_irq>
  200a8c:	14000079 	b	200c70 <exception_exit>
  200a90:	d503201f 	nop
  200a94:	d503201f 	nop
  200a98:	d503201f 	nop
  200a9c:	d503201f 	nop
  200aa0:	d503201f 	nop
  200aa4:	d503201f 	nop
  200aa8:	d503201f 	nop
  200aac:	d503201f 	nop
  200ab0:	d503201f 	nop
  200ab4:	d503201f 	nop
  200ab8:	d503201f 	nop
  200abc:	d503201f 	nop
  200ac0:	d503201f 	nop
  200ac4:	d503201f 	nop
  200ac8:	d503201f 	nop
  200acc:	d503201f 	nop
  200ad0:	d503201f 	nop
  200ad4:	d503201f 	nop
  200ad8:	d503201f 	nop
  200adc:	d503201f 	nop
  200ae0:	d503201f 	nop
  200ae4:	d503201f 	nop
  200ae8:	d503201f 	nop
  200aec:	d503201f 	nop
  200af0:	d503201f 	nop
  200af4:	d503201f 	nop
  200af8:	d503201f 	nop
  200afc:	d503201f 	nop
  200b00:	a9bf7bfd 	stp	x29, x30, [sp,#-16]!
  200b04:	94000022 	bl	200b8c <_exception_entry>
  200b08:	1400005a 	b	200c70 <exception_exit>
  200b0c:	d503201f 	nop
  200b10:	d503201f 	nop
  200b14:	d503201f 	nop
  200b18:	d503201f 	nop
  200b1c:	d503201f 	nop
  200b20:	d503201f 	nop
  200b24:	d503201f 	nop
  200b28:	d503201f 	nop
  200b2c:	d503201f 	nop
  200b30:	d503201f 	nop
  200b34:	d503201f 	nop
  200b38:	d503201f 	nop
  200b3c:	d503201f 	nop
  200b40:	d503201f 	nop
  200b44:	d503201f 	nop
  200b48:	d503201f 	nop
  200b4c:	d503201f 	nop
  200b50:	d503201f 	nop
  200b54:	d503201f 	nop
  200b58:	d503201f 	nop
  200b5c:	d503201f 	nop
  200b60:	d503201f 	nop
  200b64:	d503201f 	nop
  200b68:	d503201f 	nop
  200b6c:	d503201f 	nop
  200b70:	d503201f 	nop
  200b74:	d503201f 	nop
  200b78:	d503201f 	nop
  200b7c:	d503201f 	nop
  200b80:	a9bf7bfd 	stp	x29, x30, [sp,#-16]!
  200b84:	94000002 	bl	200b8c <_exception_entry>
  200b88:	1400003a 	b	200c70 <exception_exit>

0000000000200b8c <_exception_entry>:
  200b8c:	a9bf73fb 	stp	x27, x28, [sp,#-16]!
  200b90:	a9bf6bf9 	stp	x25, x26, [sp,#-16]!
  200b94:	a9bf63f7 	stp	x23, x24, [sp,#-16]!
  200b98:	a9bf5bf5 	stp	x21, x22, [sp,#-16]!
  200b9c:	a9bf53f3 	stp	x19, x20, [sp,#-16]!
  200ba0:	a9bf4bf1 	stp	x17, x18, [sp,#-16]!
  200ba4:	a9bf43ef 	stp	x15, x16, [sp,#-16]!
  200ba8:	a9bf3bed 	stp	x13, x14, [sp,#-16]!
  200bac:	a9bf33eb 	stp	x11, x12, [sp,#-16]!
  200bb0:	a9bf2be9 	stp	x9, x10, [sp,#-16]!
  200bb4:	a9bf23e7 	stp	x7, x8, [sp,#-16]!
  200bb8:	a9bf1be5 	stp	x5, x6, [sp,#-16]!
  200bbc:	a9bf13e3 	stp	x3, x4, [sp,#-16]!
  200bc0:	a9bf0be1 	stp	x1, x2, [sp,#-16]!
  200bc4:	d538424b 	mrs	x11, currentel
  200bc8:	f100317f 	cmp	x11, #0xc
  200bcc:	540000a0 	b.eq	200be0 <_exception_entry+0x54>
  200bd0:	f100217f 	cmp	x11, #0x8
  200bd4:	540001a0 	b.eq	200c08 <_exception_entry+0x7c>
  200bd8:	f100117f 	cmp	x11, #0x4
  200bdc:	540002a0 	b.eq	200c30 <_exception_entry+0xa4>
  200be0:	d53e5201 	mrs	x1, esr_el3
  200be4:	d53e4022 	mrs	x2, elr_el3
  200be8:	d53b4223 	mrs	x3, daif
  200bec:	d53ec004 	mrs	x4, vbar_el3
  200bf0:	d53e4005 	mrs	x5, spsr_el3
  200bf4:	d103c3e6 	sub	x6, sp, #0xf0
  200bf8:	d53e1007 	mrs	x7, sctlr_el3
  200bfc:	d53e1108 	mrs	x8, scr_el3
  200c00:	d53e2009 	mrs	x9, ttbr0_el3
  200c04:	14000014 	b	200c54 <_exception_entry+0xc8>
  200c08:	d53c5201 	mrs	x1, esr_el2
  200c0c:	d53c4022 	mrs	x2, elr_el2
  200c10:	d53b4223 	mrs	x3, daif
  200c14:	d53cc004 	mrs	x4, vbar_el2
  200c18:	d53c4005 	mrs	x5, spsr_el2
  200c1c:	d103c3e6 	sub	x6, sp, #0xf0
  200c20:	d53c1007 	mrs	x7, sctlr_el2
  200c24:	d53c1108 	mrs	x8, hcr_el2
  200c28:	d53c2009 	mrs	x9, ttbr0_el2
  200c2c:	1400000a 	b	200c54 <_exception_entry+0xc8>
  200c30:	d5385201 	mrs	x1, esr_el1
  200c34:	d5384022 	mrs	x2, elr_el1
  200c38:	d53b4223 	mrs	x3, daif
  200c3c:	d538c004 	mrs	x4, vbar_el1
  200c40:	d5384005 	mrs	x5, spsr_el1
  200c44:	d103c3e6 	sub	x6, sp, #0xf0
  200c48:	d5381007 	mrs	x7, sctlr_el1
  200c4c:	d2800008 	mov	x8, #0x0                   	// #0
  200c50:	d5382009 	mrs	x9, ttbr0_el1
  200c54:	a9bf03e2 	stp	x2, x0, [sp,#-16]!
  200c58:	a9bf07e3 	stp	x3, x1, [sp,#-16]!
  200c5c:	a9bf13e5 	stp	x5, x4, [sp,#-16]!
  200c60:	a9bf1be7 	stp	x7, x6, [sp,#-16]!
  200c64:	a9bf23e9 	stp	x9, x8, [sp,#-16]!
  200c68:	910003e0 	mov	x0, sp
  200c6c:	d65f03c0 	ret

0000000000200c70 <exception_exit>:
  200c70:	910103ff 	add	sp, sp, #0x40
  200c74:	a8c103e2 	ldp	x2, x0, [sp],#16
  200c78:	d538424b 	mrs	x11, currentel
  200c7c:	f100317f 	cmp	x11, #0xc
  200c80:	540000a0 	b.eq	200c94 <exception_exit+0x24>
  200c84:	f100217f 	cmp	x11, #0x8
  200c88:	540000a0 	b.eq	200c9c <exception_exit+0x2c>
  200c8c:	f100117f 	cmp	x11, #0x4
  200c90:	540000a0 	b.eq	200ca4 <exception_exit+0x34>
  200c94:	d51e4022 	msr	elr_el3, x2
  200c98:	14000004 	b	200ca8 <exception_exit+0x38>
  200c9c:	d51c4022 	msr	elr_el2, x2
  200ca0:	14000002 	b	200ca8 <exception_exit+0x38>
  200ca4:	d5184022 	msr	elr_el1, x2
  200ca8:	a8c10be1 	ldp	x1, x2, [sp],#16
  200cac:	a8c113e3 	ldp	x3, x4, [sp],#16
  200cb0:	a8c11be5 	ldp	x5, x6, [sp],#16
  200cb4:	a8c123e7 	ldp	x7, x8, [sp],#16
  200cb8:	a8c12be9 	ldp	x9, x10, [sp],#16
  200cbc:	a8c133eb 	ldp	x11, x12, [sp],#16
  200cc0:	a8c13bed 	ldp	x13, x14, [sp],#16
  200cc4:	a8c143ef 	ldp	x15, x16, [sp],#16
  200cc8:	a8c14bf1 	ldp	x17, x18, [sp],#16
  200ccc:	a8c153f3 	ldp	x19, x20, [sp],#16
  200cd0:	a8c15bf5 	ldp	x21, x22, [sp],#16
  200cd4:	a8c163f7 	ldp	x23, x24, [sp],#16
  200cd8:	a8c16bf9 	ldp	x25, x26, [sp],#16
  200cdc:	a8c173fb 	ldp	x27, x28, [sp],#16
  200ce0:	a8c17bfd 	ldp	x29, x30, [sp],#16
  200ce4:	d69f03e0 	eret

0000000000200ce8 <_main>:
  200ce8:	58000ac0 	ldr	x0, 200e40 <hang+0x20>
  200cec:	927cec1f 	and	sp, x0, #0xfffffffffffffff0
  200cf0:	9400008d 	bl	200f24 <main>
  200cf4:	f9404240 	ldr	x0, [x18,#128]
  200cf8:	927cec1f 	and	sp, x0, #0xfffffffffffffff0
  200cfc:	f9404a52 	ldr	x18, [x18,#144]
  200d00:	100000be 	adr	x30, 200d14 <relocation_return>
  200d04:	f9404649 	ldr	x9, [x18,#136]
  200d08:	8b0903de 	add	x30, x30, x9
  200d0c:	f9403240 	ldr	x0, [x18,#96]
  200d10:	14000007 	b	200d2c <relocate_code>

0000000000200d14 <relocation_return>:
  200d14:	97fffd05 	bl	200128 <c_runtime_cpu_setup>
  200d18:	58000980 	ldr	x0, 200e48 <hang+0x28>
  200d1c:	580009a1 	ldr	x1, 200e50 <hang+0x30>

0000000000200d20 <clear_loop>:
  200d20:	f800841f 	str	xzr, [x0],#8
  200d24:	eb01001f 	cmp	x0, x1
  200d28:	54ffffc3 	b.cc	200d20 <clear_loop>

0000000000200d2c <relocate_code>:
  200d2c:	a9be7bfd 	stp	x29, x30, [sp,#-32]!
  200d30:	910003fd 	mov	x29, sp
  200d34:	f9000be0 	str	x0, [sp,#16]
  200d38:	10ff9641 	adr	x1, 200000 <__image_copy_start>
  200d3c:	eb010009 	subs	x9, x0, x1
  200d40:	540002c0 	b.eq	200d98 <relocate_done>
  200d44:	58ff9621 	ldr	x1, 200008 <_TEXT_BASE>
  200d48:	eb010009 	subs	x9, x0, x1
  200d4c:	10ff95a1 	adr	x1, 200000 <__image_copy_start>
  200d50:	10010642 	adr	x2, 202e18 <__bss_start>

0000000000200d54 <copy_loop>:
  200d54:	a8c12c2a 	ldp	x10, x11, [x1],#16
  200d58:	a8812c0a 	stp	x10, x11, [x0],#16
  200d5c:	eb02003f 	cmp	x1, x2
  200d60:	54ffffa3 	b.cc	200d54 <copy_loop>
  200d64:	f9000fe0 	str	x0, [sp,#24]
  200d68:	10010582 	adr	x2, 202e18 <__bss_start>
  200d6c:	10010563 	adr	x3, 202e18 <__bss_start>

0000000000200d70 <fixloop>:
  200d70:	a8c10440 	ldp	x0, x1, [x2],#16
  200d74:	f8408444 	ldr	x4, [x2],#8
  200d78:	92407c21 	and	x1, x1, #0xffffffff
  200d7c:	f1100c3f 	cmp	x1, #0x403
  200d80:	54000081 	b.ne	200d90 <fixnext>
  200d84:	8b090000 	add	x0, x0, x9
  200d88:	8b090084 	add	x4, x4, x9
  200d8c:	f9000004 	str	x4, [x0]

0000000000200d90 <fixnext>:
  200d90:	eb03005f 	cmp	x2, x3
  200d94:	54fffee3 	b.cc	200d70 <fixloop>

0000000000200d98 <relocate_done>:
  200d98:	d5384241 	mrs	x1, currentel
  200d9c:	f100303f 	cmp	x1, #0xc
  200da0:	540000c0 	b.eq	200db8 <relocate_done+0x20>
  200da4:	f100203f 	cmp	x1, #0x8
  200da8:	540000c0 	b.eq	200dc0 <relocate_done+0x28>
  200dac:	f100103f 	cmp	x1, #0x4
  200db0:	540000c0 	b.eq	200dc8 <relocate_done+0x30>
  200db4:	9400001b 	bl	200e20 <hang>
  200db8:	d53e1000 	mrs	x0, sctlr_el3
  200dbc:	14000004 	b	200dcc <relocate_done+0x34>
  200dc0:	d53c1000 	mrs	x0, sctlr_el2
  200dc4:	14000002 	b	200dcc <relocate_done+0x34>
  200dc8:	d5381000 	mrs	x0, sctlr_el1
  200dcc:	361000c0 	tbz	w0, #2, 200de4 <relocate_done+0x4c>
  200dd0:	36600060 	tbz	w0, #12, 200ddc <relocate_done+0x44>
  200dd4:	d508751f 	ic	iallu
  200dd8:	d5033fdf 	isb
  200ddc:	a94107e0 	ldp	x0, x1, [sp,#16]
  200de0:	94000003 	bl	200dec <__asm_flush_dcache_range>
  200de4:	a8c27bfd 	ldp	x29, x30, [sp],#32
  200de8:	d65f03c0 	ret

0000000000200dec <__asm_flush_dcache_range>:
  200dec:	d53b0023 	mrs	x3, ctr_el0
  200df0:	d350fc63 	lsr	x3, x3, #16
  200df4:	92400c63 	and	x3, x3, #0xf
  200df8:	d2800082 	mov	x2, #0x4                   	// #4
  200dfc:	9ac32042 	lsl	x2, x2, x3
  200e00:	d1000443 	sub	x3, x2, #0x1
  200e04:	8a230000 	bic	x0, x0, x3
  200e08:	d50b7e20 	dc	civac, x0
  200e0c:	8b020000 	add	x0, x0, x2
  200e10:	eb01001f 	cmp	x0, x1
  200e14:	54ffffa3 	b.cc	200e08 <__asm_flush_dcache_range+0x1c>
  200e18:	d5033f9f 	dsb	sy
  200e1c:	d65f03c0 	ret

0000000000200e20 <hang>:
  200e20:	94000000 	bl	200e20 <hang>
  200e24:	00000000 	.inst	0x00000000 ; undefined
  200e28:	016e3600 	.word	0x016e3600
  200e2c:	00000000 	.word	0x00000000
  200e30:	fee00000 	.word	0xfee00000
  200e34:	00000000 	.word	0x00000000
  200e38:	fef00000 	.word	0xfef00000
  200e3c:	00000000 	.word	0x00000000
  200e40:	00400000 	.word	0x00400000
  200e44:	00000000 	.word	0x00000000
  200e48:	00202e18 	.word	0x00202e18
  200e4c:	00000000 	.word	0x00000000
  200e50:	00203941 	.word	0x00203941
  200e54:	00000000 	.word	0x00000000

0000000000200e58 <uart_test>:
  200e58:	a9bf7bfd 	stp	x29, x30, [sp,#-16]!
  200e5c:	910003fd 	mov	x29, sp
  200e60:	9400011c 	bl	2012d0 <uart_init>
  200e64:	9400032e 	bl	201b1c <printf_test>
  200e68:	d0000000 	adrp	x0, 202000 <test_timer_irq+0x64>
  200e6c:	912c4000 	add	x0, x0, #0xb10
  200e70:	94000302 	bl	201a78 <my_printf>
  200e74:	d503201f 	nop
  200e78:	a8c17bfd 	ldp	x29, x30, [sp],#16
  200e7c:	d65f03c0 	ret

0000000000200e80 <i2c_test>:
  200e80:	a9be7bfd 	stp	x29, x30, [sp,#-32]!
  200e84:	910003fd 	mov	x29, sp
  200e88:	94000500 	bl	202288 <i2c_init>
  200e8c:	b9001fbf 	str	wzr, [x29,#28]
  200e90:	14000006 	b	200ea8 <i2c_test+0x28>
  200e94:	d2800080 	mov	x0, #0x4                   	// #4
  200e98:	94000398 	bl	201cf8 <delay_ms>
  200e9c:	b9401fa0 	ldr	w0, [x29,#28]
  200ea0:	11000400 	add	w0, w0, #0x1
  200ea4:	b9001fa0 	str	w0, [x29,#28]
  200ea8:	b9401fa0 	ldr	w0, [x29,#28]
  200eac:	7100101f 	cmp	w0, #0x4
  200eb0:	54ffff2d 	b.le	200e94 <i2c_test+0x14>
  200eb4:	d0000000 	adrp	x0, 202000 <test_timer_irq+0x64>
  200eb8:	912ca000 	add	x0, x0, #0xb28
  200ebc:	940002ef 	bl	201a78 <my_printf>
  200ec0:	d2800140 	mov	x0, #0xa                   	// #10
  200ec4:	9400038d 	bl	201cf8 <delay_ms>
  200ec8:	b9001fbf 	str	wzr, [x29,#28]
  200ecc:	14000010 	b	200f0c <i2c_test+0x8c>
  200ed0:	b9401fa0 	ldr	w0, [x29,#28]
  200ed4:	12001c00 	and	w0, w0, #0xff
  200ed8:	9400054c 	bl	202408 <eeprom_read>
  200edc:	12001c00 	and	w0, w0, #0xff
  200ee0:	2a0003e1 	mov	w1, w0
  200ee4:	d0000000 	adrp	x0, 202000 <test_timer_irq+0x64>
  200ee8:	912d0000 	add	x0, x0, #0xb40
  200eec:	2a0103e2 	mov	w2, w1
  200ef0:	b9401fa1 	ldr	w1, [x29,#28]
  200ef4:	940002e1 	bl	201a78 <my_printf>
  200ef8:	d2800080 	mov	x0, #0x4                   	// #4
  200efc:	9400037f 	bl	201cf8 <delay_ms>
  200f00:	b9401fa0 	ldr	w0, [x29,#28]
  200f04:	11000400 	add	w0, w0, #0x1
  200f08:	b9001fa0 	str	w0, [x29,#28]
  200f0c:	b9401fa0 	ldr	w0, [x29,#28]
  200f10:	7100241f 	cmp	w0, #0x9
  200f14:	54fffded 	b.le	200ed0 <i2c_test+0x50>
  200f18:	d503201f 	nop
  200f1c:	a8c27bfd 	ldp	x29, x30, [sp],#32
  200f20:	d65f03c0 	ret

0000000000200f24 <main>:
  200f24:	a9bd7bfd 	stp	x29, x30, [sp,#-48]!
  200f28:	910003fd 	mov	x29, sp
  200f2c:	94000025 	bl	200fc0 <led_init>
  200f30:	52800000 	mov	w0, #0x0                   	// #0
  200f34:	9400004c 	bl	201064 <led_ctl>
  200f38:	940000e6 	bl	2012d0 <uart_init>
  200f3c:	d0000000 	adrp	x0, 202000 <test_timer_irq+0x64>
  200f40:	912d6000 	add	x0, x0, #0xb58
  200f44:	940002cd 	bl	201a78 <my_printf>
  200f48:	9400058c 	bl	202578 <spi_init>
  200f4c:	910043a1 	add	x1, x29, #0x10
  200f50:	910053a0 	add	x0, x29, #0x14
  200f54:	940006d5 	bl	202aa8 <spi_flash_read_ID>
  200f58:	b94017a1 	ldr	w1, [x29,#20]
  200f5c:	b94013a2 	ldr	w2, [x29,#16]
  200f60:	d0000000 	adrp	x0, 202000 <test_timer_irq+0x64>
  200f64:	912da000 	add	x0, x0, #0xb68
  200f68:	940002c4 	bl	201a78 <my_printf>
  200f6c:	940006c8 	bl	202a8c <spi_flash_init>
  200f70:	52820000 	mov	w0, #0x1000                	// #4096
  200f74:	94000673 	bl	202940 <spi_flash_erase_sector>
  200f78:	d0000000 	adrp	x0, 202000 <test_timer_irq+0x64>
  200f7c:	912e6000 	add	x0, x0, #0xb98
  200f80:	528000e2 	mov	w2, #0x7                   	// #7
  200f84:	aa0003e1 	mov	x1, x0
  200f88:	52820000 	mov	w0, #0x1000                	// #4096
  200f8c:	9400067e 	bl	202984 <spi_flash_program>
  200f90:	910063a0 	add	x0, x29, #0x18
  200f94:	528000e2 	mov	w2, #0x7                   	// #7
  200f98:	aa0003e1 	mov	x1, x0
  200f9c:	52820000 	mov	w0, #0x1000                	// #4096
  200fa0:	9400069a 	bl	202a08 <spi_flash_read>
  200fa4:	910063a1 	add	x1, x29, #0x18
  200fa8:	d0000000 	adrp	x0, 202000 <test_timer_irq+0x64>
  200fac:	912e8000 	add	x0, x0, #0xba0
  200fb0:	940002b2 	bl	201a78 <my_printf>
  200fb4:	d2800040 	mov	x0, #0x2                   	// #2
  200fb8:	9400035f 	bl	201d34 <delay_s>
  200fbc:	17ffffed 	b	200f70 <main+0x4c>

0000000000200fc0 <led_init>:
  200fc0:	d0000000 	adrp	x0, 202000 <test_timer_irq+0x64>
  200fc4:	91386000 	add	x0, x0, #0xe18
  200fc8:	d2806f81 	mov	x1, #0x37c                 	// #892
  200fcc:	f2bfeec1 	movk	x1, #0xff76, lsl #16
  200fd0:	f9000001 	str	x1, [x0]
  200fd4:	d0000000 	adrp	x0, 202000 <test_timer_irq+0x64>
  200fd8:	91388000 	add	x0, x0, #0xe20
  200fdc:	d29c0381 	mov	x1, #0xe01c                	// #57372
  200fe0:	f2bfeee1 	movk	x1, #0xff77, lsl #16
  200fe4:	f9000001 	str	x1, [x0]
  200fe8:	d0000000 	adrp	x0, 202000 <test_timer_irq+0x64>
  200fec:	9138a000 	add	x0, x0, #0xe28
  200ff0:	d2900001 	mov	x1, #0x8000                	// #32768
  200ff4:	f2bfef01 	movk	x1, #0xff78, lsl #16
  200ff8:	f9000001 	str	x1, [x0]
  200ffc:	d0000000 	adrp	x0, 202000 <test_timer_irq+0x64>
  201000:	9138c000 	add	x0, x0, #0xe30
  201004:	d2900081 	mov	x1, #0x8004                	// #32772
  201008:	f2bfef01 	movk	x1, #0xff78, lsl #16
  20100c:	f9000001 	str	x1, [x0]
  201010:	b0000000 	adrp	x0, 202000 <test_timer_irq+0x64>
  201014:	91386000 	add	x0, x0, #0xe18
  201018:	f9400000 	ldr	x0, [x0]
  20101c:	52a00201 	mov	w1, #0x100000              	// #1048576
  201020:	b9000001 	str	w1, [x0]
  201024:	b0000000 	adrp	x0, 202000 <test_timer_irq+0x64>
  201028:	91388000 	add	x0, x0, #0xe20
  20102c:	f9400000 	ldr	x0, [x0]
  201030:	52a18001 	mov	w1, #0xc000000             	// #201326592
  201034:	b9000001 	str	w1, [x0]
  201038:	b0000000 	adrp	x0, 202000 <test_timer_irq+0x64>
  20103c:	9138c000 	add	x0, x0, #0xe30
  201040:	f9400000 	ldr	x0, [x0]
  201044:	b0000001 	adrp	x1, 202000 <test_timer_irq+0x64>
  201048:	9138c021 	add	x1, x1, #0xe30
  20104c:	f9400021 	ldr	x1, [x1]
  201050:	b9400021 	ldr	w1, [x1]
  201054:	32030021 	orr	w1, w1, #0x20000000
  201058:	b9000001 	str	w1, [x0]
  20105c:	d503201f 	nop
  201060:	d65f03c0 	ret

0000000000201064 <led_ctl>:
  201064:	d10043ff 	sub	sp, sp, #0x10
  201068:	b9000fe0 	str	w0, [sp,#12]
  20106c:	b9400fe0 	ldr	w0, [sp,#12]
  201070:	7100001f 	cmp	w0, #0x0
  201074:	54000160 	b.eq	2010a0 <led_ctl+0x3c>
  201078:	b0000000 	adrp	x0, 202000 <test_timer_irq+0x64>
  20107c:	9138a000 	add	x0, x0, #0xe28
  201080:	f9400000 	ldr	x0, [x0]
  201084:	b0000001 	adrp	x1, 202000 <test_timer_irq+0x64>
  201088:	9138a021 	add	x1, x1, #0xe28
  20108c:	f9400021 	ldr	x1, [x1]
  201090:	b9400021 	ldr	w1, [x1]
  201094:	32030021 	orr	w1, w1, #0x20000000
  201098:	b9000001 	str	w1, [x0]
  20109c:	1400000a 	b	2010c4 <led_ctl+0x60>
  2010a0:	b0000000 	adrp	x0, 202000 <test_timer_irq+0x64>
  2010a4:	9138a000 	add	x0, x0, #0xe28
  2010a8:	f9400000 	ldr	x0, [x0]
  2010ac:	b0000001 	adrp	x1, 202000 <test_timer_irq+0x64>
  2010b0:	9138a021 	add	x1, x1, #0xe28
  2010b4:	f9400021 	ldr	x1, [x1]
  2010b8:	b9400021 	ldr	w1, [x1]
  2010bc:	12027821 	and	w1, w1, #0xdfffffff
  2010c0:	b9000001 	str	w1, [x0]
  2010c4:	d503201f 	nop
  2010c8:	910043ff 	add	sp, sp, #0x10
  2010cc:	d65f03c0 	ret

00000000002010d0 <led_delay>:
  2010d0:	d10043ff 	sub	sp, sp, #0x10
  2010d4:	f90007ff 	str	xzr, [sp,#8]
  2010d8:	1400000e 	b	201110 <led_delay+0x40>
  2010dc:	f90003ff 	str	xzr, [sp]
  2010e0:	14000004 	b	2010f0 <led_delay+0x20>
  2010e4:	f94003e0 	ldr	x0, [sp]
  2010e8:	91000400 	add	x0, x0, #0x1
  2010ec:	f90003e0 	str	x0, [sp]
  2010f0:	f94003e1 	ldr	x1, [sp]
  2010f4:	d290d3e0 	mov	x0, #0x869f                	// #34463
  2010f8:	f2a00020 	movk	x0, #0x1, lsl #16
  2010fc:	eb00003f 	cmp	x1, x0
  201100:	54ffff29 	b.ls	2010e4 <led_delay+0x14>
  201104:	f94007e0 	ldr	x0, [sp,#8]
  201108:	91000400 	add	x0, x0, #0x1
  20110c:	f90007e0 	str	x0, [sp,#8]
  201110:	f94007e0 	ldr	x0, [sp,#8]
  201114:	f100241f 	cmp	x0, #0x9
  201118:	54fffe29 	b.ls	2010dc <led_delay+0xc>
  20111c:	d503201f 	nop
  201120:	910043ff 	add	sp, sp, #0x10
  201124:	d65f03c0 	ret

0000000000201128 <rk_uart_iomux>:
  201128:	b0000000 	adrp	x0, 202000 <test_timer_irq+0x64>
  20112c:	9138e000 	add	x0, x0, #0xe38
  201130:	d29c0501 	mov	x1, #0xe028                	// #57384
  201134:	f2bfeec1 	movk	x1, #0xff76, lsl #16
  201138:	f9000001 	str	x1, [x0]
  20113c:	b0000000 	adrp	x0, 202000 <test_timer_irq+0x64>
  201140:	9138e000 	add	x0, x0, #0xe38
  201144:	f9400000 	ldr	x0, [x0]
  201148:	52805001 	mov	w1, #0x280                 	// #640
  20114c:	72a07801 	movk	w1, #0x3c0, lsl #16
  201150:	b9000001 	str	w1, [x0]
  201154:	d503201f 	nop
  201158:	d65f03c0 	ret

000000000020115c <rk_uart_reset>:
  20115c:	a9bf7bfd 	stp	x29, x30, [sp,#-16]!
  201160:	910003fd 	mov	x29, sp
  201164:	d2801100 	mov	x0, #0x88                  	// #136
  201168:	f2bfe340 	movk	x0, #0xff1a, lsl #16
  20116c:	528000c1 	mov	w1, #0x6                   	// #6
  201170:	b9000001 	str	w1, [x0]
  201174:	52800000 	mov	w0, #0x0                   	// #0
  201178:	97ffffbb 	bl	201064 <led_ctl>
  20117c:	d2800080 	mov	x0, #0x4                   	// #4
  201180:	f2bfe340 	movk	x0, #0xff1a, lsl #16
  201184:	b900001f 	str	wzr, [x0]
  201188:	d503201f 	nop
  20118c:	a8c17bfd 	ldp	x29, x30, [sp],#16
  201190:	d65f03c0 	ret

0000000000201194 <rk_uart_set_iop>:
  201194:	d2800200 	mov	x0, #0x10                  	// #16
  201198:	f2bfe340 	movk	x0, #0xff1a, lsl #16
  20119c:	b900001f 	str	wzr, [x0]
  2011a0:	d503201f 	nop
  2011a4:	d65f03c0 	ret

00000000002011a8 <rk_uart_set_lcr>:
  2011a8:	d2800180 	mov	x0, #0xc                   	// #12
  2011ac:	f2bfe340 	movk	x0, #0xff1a, lsl #16
  2011b0:	d2800181 	mov	x1, #0xc                   	// #12
  2011b4:	f2bfe341 	movk	x1, #0xff1a, lsl #16
  2011b8:	b9400021 	ldr	w1, [x1]
  2011bc:	121e7421 	and	w1, w1, #0xfffffffc
  2011c0:	b9000001 	str	w1, [x0]
  2011c4:	d2800180 	mov	x0, #0xc                   	// #12
  2011c8:	f2bfe340 	movk	x0, #0xff1a, lsl #16
  2011cc:	d2800181 	mov	x1, #0xc                   	// #12
  2011d0:	f2bfe341 	movk	x1, #0xff1a, lsl #16
  2011d4:	b9400021 	ldr	w1, [x1]
  2011d8:	32000421 	orr	w1, w1, #0x3
  2011dc:	b9000001 	str	w1, [x0]
  2011e0:	d2800180 	mov	x0, #0xc                   	// #12
  2011e4:	f2bfe340 	movk	x0, #0xff1a, lsl #16
  2011e8:	d2800181 	mov	x1, #0xc                   	// #12
  2011ec:	f2bfe341 	movk	x1, #0xff1a, lsl #16
  2011f0:	b9400021 	ldr	w1, [x1]
  2011f4:	121c7821 	and	w1, w1, #0xfffffff7
  2011f8:	b9000001 	str	w1, [x0]
  2011fc:	d2800180 	mov	x0, #0xc                   	// #12
  201200:	f2bfe340 	movk	x0, #0xff1a, lsl #16
  201204:	d2800181 	mov	x1, #0xc                   	// #12
  201208:	f2bfe341 	movk	x1, #0xff1a, lsl #16
  20120c:	b9400021 	ldr	w1, [x1]
  201210:	121d7821 	and	w1, w1, #0xfffffffb
  201214:	b9000001 	str	w1, [x0]
  201218:	d503201f 	nop
  20121c:	d65f03c0 	ret

0000000000201220 <rk_uart_set_baudrate>:
  201220:	d10043ff 	sub	sp, sp, #0x10
  201224:	d2800020 	mov	x0, #0x1                   	// #1
  201228:	f90007e0 	str	x0, [sp,#8]
  20122c:	d2800180 	mov	x0, #0xc                   	// #12
  201230:	f2bfe340 	movk	x0, #0xff1a, lsl #16
  201234:	d2800181 	mov	x1, #0xc                   	// #12
  201238:	f2bfe341 	movk	x1, #0xff1a, lsl #16
  20123c:	b9400021 	ldr	w1, [x1]
  201240:	32190021 	orr	w1, w1, #0x80
  201244:	b9000001 	str	w1, [x0]
  201248:	d2bfe340 	mov	x0, #0xff1a0000            	// #4279894016
  20124c:	f94007e1 	ldr	x1, [sp,#8]
  201250:	12001c21 	and	w1, w1, #0xff
  201254:	b9000001 	str	w1, [x0]
  201258:	d2800080 	mov	x0, #0x4                   	// #4
  20125c:	f2bfe340 	movk	x0, #0xff1a, lsl #16
  201260:	f94007e1 	ldr	x1, [sp,#8]
  201264:	d348fc21 	lsr	x1, x1, #8
  201268:	12001c21 	and	w1, w1, #0xff
  20126c:	b9000001 	str	w1, [x0]
  201270:	d2800180 	mov	x0, #0xc                   	// #12
  201274:	f2bfe340 	movk	x0, #0xff1a, lsl #16
  201278:	d2800181 	mov	x1, #0xc                   	// #12
  20127c:	f2bfe341 	movk	x1, #0xff1a, lsl #16
  201280:	b9400021 	ldr	w1, [x1]
  201284:	12187821 	and	w1, w1, #0xffffff7f
  201288:	b9000001 	str	w1, [x0]
  20128c:	d503201f 	nop
  201290:	910043ff 	add	sp, sp, #0x10
  201294:	d65f03c0 	ret

0000000000201298 <rk_uart_set_fifo>:
  201298:	d2801300 	mov	x0, #0x98                  	// #152
  20129c:	f2bfe340 	movk	x0, #0xff1a, lsl #16
  2012a0:	52800021 	mov	w1, #0x1                   	// #1
  2012a4:	b9000001 	str	w1, [x0]
  2012a8:	d2801380 	mov	x0, #0x9c                  	// #156
  2012ac:	f2bfe340 	movk	x0, #0xff1a, lsl #16
  2012b0:	52800061 	mov	w1, #0x3                   	// #3
  2012b4:	b9000001 	str	w1, [x0]
  2012b8:	d2801400 	mov	x0, #0xa0                  	// #160
  2012bc:	f2bfe340 	movk	x0, #0xff1a, lsl #16
  2012c0:	52800021 	mov	w1, #0x1                   	// #1
  2012c4:	b9000001 	str	w1, [x0]
  2012c8:	d503201f 	nop
  2012cc:	d65f03c0 	ret

00000000002012d0 <uart_init>:
  2012d0:	a9bf7bfd 	stp	x29, x30, [sp,#-16]!
  2012d4:	910003fd 	mov	x29, sp
  2012d8:	97ffff94 	bl	201128 <rk_uart_iomux>
  2012dc:	97ffffa0 	bl	20115c <rk_uart_reset>
  2012e0:	97ffffad 	bl	201194 <rk_uart_set_iop>
  2012e4:	97ffffb1 	bl	2011a8 <rk_uart_set_lcr>
  2012e8:	97ffffce 	bl	201220 <rk_uart_set_baudrate>
  2012ec:	97ffffeb 	bl	201298 <rk_uart_set_fifo>
  2012f0:	d503201f 	nop
  2012f4:	a8c17bfd 	ldp	x29, x30, [sp],#16
  2012f8:	d65f03c0 	ret

00000000002012fc <rk_uart_sendbyte>:
  2012fc:	d10043ff 	sub	sp, sp, #0x10
  201300:	39003fe0 	strb	w0, [sp,#15]
  201304:	d503201f 	nop
  201308:	d2800f80 	mov	x0, #0x7c                  	// #124
  20130c:	f2bfe340 	movk	x0, #0xff1a, lsl #16
  201310:	b9400000 	ldr	w0, [x0]
  201314:	121f0000 	and	w0, w0, #0x2
  201318:	7100001f 	cmp	w0, #0x0
  20131c:	54ffff60 	b.eq	201308 <rk_uart_sendbyte+0xc>
  201320:	d2bfe340 	mov	x0, #0xff1a0000            	// #4279894016
  201324:	39403fe1 	ldrb	w1, [sp,#15]
  201328:	b9000001 	str	w1, [x0]
  20132c:	d503201f 	nop
  201330:	910043ff 	add	sp, sp, #0x10
  201334:	d65f03c0 	ret

0000000000201338 <rk_uart_sendstring>:
  201338:	a9be7bfd 	stp	x29, x30, [sp,#-32]!
  20133c:	910003fd 	mov	x29, sp
  201340:	f9000fa0 	str	x0, [x29,#24]
  201344:	14000006 	b	20135c <rk_uart_sendstring+0x24>
  201348:	f9400fa0 	ldr	x0, [x29,#24]
  20134c:	91000401 	add	x1, x0, #0x1
  201350:	f9000fa1 	str	x1, [x29,#24]
  201354:	39400000 	ldrb	w0, [x0]
  201358:	97ffffe9 	bl	2012fc <rk_uart_sendbyte>
  20135c:	f9400fa0 	ldr	x0, [x29,#24]
  201360:	39400000 	ldrb	w0, [x0]
  201364:	7100001f 	cmp	w0, #0x0
  201368:	54ffff01 	b.ne	201348 <rk_uart_sendstring+0x10>
  20136c:	d503201f 	nop
  201370:	a8c27bfd 	ldp	x29, x30, [sp],#32
  201374:	d65f03c0 	ret

0000000000201378 <rk_uart_sendhex>:
  201378:	a9bb7bfd 	stp	x29, x30, [sp,#-80]!
  20137c:	910003fd 	mov	x29, sp
  201380:	b9001fa0 	str	w0, [x29,#28]
  201384:	b9004fbf 	str	wzr, [x29,#76]
  201388:	1400000d 	b	2013bc <rk_uart_sendhex+0x44>
  20138c:	b9401fa0 	ldr	w0, [x29,#28]
  201390:	12000c02 	and	w2, w0, #0xf
  201394:	b9804fa0 	ldrsw	x0, [x29,#76]
  201398:	d37ef400 	lsl	x0, x0, #2
  20139c:	9100a3a1 	add	x1, x29, #0x28
  2013a0:	b8206822 	str	w2, [x1,x0]
  2013a4:	b9401fa0 	ldr	w0, [x29,#28]
  2013a8:	53047c00 	lsr	w0, w0, #4
  2013ac:	b9001fa0 	str	w0, [x29,#28]
  2013b0:	b9404fa0 	ldr	w0, [x29,#76]
  2013b4:	11000400 	add	w0, w0, #0x1
  2013b8:	b9004fa0 	str	w0, [x29,#76]
  2013bc:	b9404fa0 	ldr	w0, [x29,#76]
  2013c0:	71001c1f 	cmp	w0, #0x7
  2013c4:	54fffe4d 	b.le	20138c <rk_uart_sendhex+0x14>
  2013c8:	b0000000 	adrp	x0, 202000 <test_timer_irq+0x64>
  2013cc:	912f0000 	add	x0, x0, #0xbc0
  2013d0:	97ffffda 	bl	201338 <rk_uart_sendstring>
  2013d4:	528000e0 	mov	w0, #0x7                   	// #7
  2013d8:	b9004fa0 	str	w0, [x29,#76]
  2013dc:	14000027 	b	201478 <rk_uart_sendhex+0x100>
  2013e0:	b9804fa0 	ldrsw	x0, [x29,#76]
  2013e4:	d37ef400 	lsl	x0, x0, #2
  2013e8:	9100a3a1 	add	x1, x29, #0x28
  2013ec:	b8606820 	ldr	w0, [x1,x0]
  2013f0:	7100241f 	cmp	w0, #0x9
  2013f4:	54000148 	b.hi	20141c <rk_uart_sendhex+0xa4>
  2013f8:	b9804fa0 	ldrsw	x0, [x29,#76]
  2013fc:	d37ef400 	lsl	x0, x0, #2
  201400:	9100a3a1 	add	x1, x29, #0x28
  201404:	b8606820 	ldr	w0, [x1,x0]
  201408:	12001c00 	and	w0, w0, #0xff
  20140c:	1100c000 	add	w0, w0, #0x30
  201410:	12001c00 	and	w0, w0, #0xff
  201414:	97ffffba 	bl	2012fc <rk_uart_sendbyte>
  201418:	14000015 	b	20146c <rk_uart_sendhex+0xf4>
  20141c:	b9804fa0 	ldrsw	x0, [x29,#76]
  201420:	d37ef400 	lsl	x0, x0, #2
  201424:	9100a3a1 	add	x1, x29, #0x28
  201428:	b8606820 	ldr	w0, [x1,x0]
  20142c:	7100241f 	cmp	w0, #0x9
  201430:	540001e9 	b.ls	20146c <rk_uart_sendhex+0xf4>
  201434:	b9804fa0 	ldrsw	x0, [x29,#76]
  201438:	d37ef400 	lsl	x0, x0, #2
  20143c:	9100a3a1 	add	x1, x29, #0x28
  201440:	b8606820 	ldr	w0, [x1,x0]
  201444:	71003c1f 	cmp	w0, #0xf
  201448:	54000128 	b.hi	20146c <rk_uart_sendhex+0xf4>
  20144c:	b9804fa0 	ldrsw	x0, [x29,#76]
  201450:	d37ef400 	lsl	x0, x0, #2
  201454:	9100a3a1 	add	x1, x29, #0x28
  201458:	b8606820 	ldr	w0, [x1,x0]
  20145c:	12001c00 	and	w0, w0, #0xff
  201460:	1100dc00 	add	w0, w0, #0x37
  201464:	12001c00 	and	w0, w0, #0xff
  201468:	97ffffa5 	bl	2012fc <rk_uart_sendbyte>
  20146c:	b9404fa0 	ldr	w0, [x29,#76]
  201470:	51000400 	sub	w0, w0, #0x1
  201474:	b9004fa0 	str	w0, [x29,#76]
  201478:	b9404fa0 	ldr	w0, [x29,#76]
  20147c:	7100001f 	cmp	w0, #0x0
  201480:	54fffb0a 	b.ge	2013e0 <rk_uart_sendhex+0x68>
  201484:	d503201f 	nop
  201488:	a8c57bfd 	ldp	x29, x30, [sp],#80
  20148c:	d65f03c0 	ret

0000000000201490 <outc>:
  201490:	a9be7bfd 	stp	x29, x30, [sp,#-32]!
  201494:	910003fd 	mov	x29, sp
  201498:	b9001fa0 	str	w0, [x29,#28]
  20149c:	b9401fa0 	ldr	w0, [x29,#28]
  2014a0:	12001c00 	and	w0, w0, #0xff
  2014a4:	97ffff96 	bl	2012fc <rk_uart_sendbyte>
  2014a8:	52800000 	mov	w0, #0x0                   	// #0
  2014ac:	a8c27bfd 	ldp	x29, x30, [sp],#32
  2014b0:	d65f03c0 	ret

00000000002014b4 <outs>:
  2014b4:	a9be7bfd 	stp	x29, x30, [sp,#-32]!
  2014b8:	910003fd 	mov	x29, sp
  2014bc:	f9000fa0 	str	x0, [x29,#24]
  2014c0:	14000006 	b	2014d8 <outs+0x24>
  2014c4:	f9400fa0 	ldr	x0, [x29,#24]
  2014c8:	91000401 	add	x1, x0, #0x1
  2014cc:	f9000fa1 	str	x1, [x29,#24]
  2014d0:	39400000 	ldrb	w0, [x0]
  2014d4:	97ffff8a 	bl	2012fc <rk_uart_sendbyte>
  2014d8:	f9400fa0 	ldr	x0, [x29,#24]
  2014dc:	39400000 	ldrb	w0, [x0]
  2014e0:	7100001f 	cmp	w0, #0x0
  2014e4:	54ffff01 	b.ne	2014c4 <outs+0x10>
  2014e8:	52800000 	mov	w0, #0x0                   	// #0
  2014ec:	a8c27bfd 	ldp	x29, x30, [sp],#32
  2014f0:	d65f03c0 	ret

00000000002014f4 <out_num>:
  2014f4:	a9b77bfd 	stp	x29, x30, [sp,#-144]!
  2014f8:	910003fd 	mov	x29, sp
  2014fc:	f90017a0 	str	x0, [x29,#40]
  201500:	b90027a1 	str	w1, [x29,#36]
  201504:	39008fa2 	strb	w2, [x29,#35]
  201508:	b9001fa3 	str	w3, [x29,#28]
  20150c:	f90047bf 	str	xzr, [x29,#136]
  201510:	9100e3a0 	add	x0, x29, #0x38
  201514:	91010000 	add	x0, x0, #0x40
  201518:	f90043a0 	str	x0, [x29,#128]
  20151c:	b9007fbf 	str	wzr, [x29,#124]
  201520:	b9007bbf 	str	wzr, [x29,#120]
  201524:	f94043a0 	ldr	x0, [x29,#128]
  201528:	d1000400 	sub	x0, x0, #0x1
  20152c:	f90043a0 	str	x0, [x29,#128]
  201530:	f94043a0 	ldr	x0, [x29,#128]
  201534:	3900001f 	strb	wzr, [x0]
  201538:	f94017a0 	ldr	x0, [x29,#40]
  20153c:	f100001f 	cmp	x0, #0x0
  201540:	540000aa 	b.ge	201554 <out_num+0x60>
  201544:	f94017a0 	ldr	x0, [x29,#40]
  201548:	cb0003e0 	neg	x0, x0
  20154c:	f90047a0 	str	x0, [x29,#136]
  201550:	14000003 	b	20155c <out_num+0x68>
  201554:	f94017a0 	ldr	x0, [x29,#40]
  201558:	f90047a0 	str	x0, [x29,#136]
  20155c:	f94043a0 	ldr	x0, [x29,#128]
  201560:	d1000400 	sub	x0, x0, #0x1
  201564:	f90043a0 	str	x0, [x29,#128]
  201568:	b98027a1 	ldrsw	x1, [x29,#36]
  20156c:	f94047a0 	ldr	x0, [x29,#136]
  201570:	9ac10802 	udiv	x2, x0, x1
  201574:	9b017c41 	mul	x1, x2, x1
  201578:	cb010000 	sub	x0, x0, x1
  20157c:	b0000001 	adrp	x1, 202000 <test_timer_irq+0x64>
  201580:	91382021 	add	x1, x1, #0xe08
  201584:	38606821 	ldrb	w1, [x1,x0]
  201588:	f94043a0 	ldr	x0, [x29,#128]
  20158c:	39000001 	strb	w1, [x0]
  201590:	b9407fa0 	ldr	w0, [x29,#124]
  201594:	11000400 	add	w0, w0, #0x1
  201598:	b9007fa0 	str	w0, [x29,#124]
  20159c:	b98027a0 	ldrsw	x0, [x29,#36]
  2015a0:	f94047a1 	ldr	x1, [x29,#136]
  2015a4:	9ac00820 	udiv	x0, x1, x0
  2015a8:	f90047a0 	str	x0, [x29,#136]
  2015ac:	f94047a0 	ldr	x0, [x29,#136]
  2015b0:	f100001f 	cmp	x0, #0x0
  2015b4:	54fffd41 	b.ne	20155c <out_num+0x68>
  2015b8:	b9401fa0 	ldr	w0, [x29,#28]
  2015bc:	7100001f 	cmp	w0, #0x0
  2015c0:	540002c0 	b.eq	201618 <out_num+0x124>
  2015c4:	b9407fa1 	ldr	w1, [x29,#124]
  2015c8:	b9401fa0 	ldr	w0, [x29,#28]
  2015cc:	6b00003f 	cmp	w1, w0
  2015d0:	5400024a 	b.ge	201618 <out_num+0x124>
  2015d4:	b9401fa1 	ldr	w1, [x29,#28]
  2015d8:	b9407fa0 	ldr	w0, [x29,#124]
  2015dc:	4b000020 	sub	w0, w1, w0
  2015e0:	b9007ba0 	str	w0, [x29,#120]
  2015e4:	1400000a 	b	20160c <out_num+0x118>
  2015e8:	f94043a0 	ldr	x0, [x29,#128]
  2015ec:	d1000400 	sub	x0, x0, #0x1
  2015f0:	f90043a0 	str	x0, [x29,#128]
  2015f4:	f94043a0 	ldr	x0, [x29,#128]
  2015f8:	39408fa1 	ldrb	w1, [x29,#35]
  2015fc:	39000001 	strb	w1, [x0]
  201600:	b9407ba0 	ldr	w0, [x29,#120]
  201604:	51000400 	sub	w0, w0, #0x1
  201608:	b9007ba0 	str	w0, [x29,#120]
  20160c:	b9407ba0 	ldr	w0, [x29,#120]
  201610:	7100001f 	cmp	w0, #0x0
  201614:	54fffea1 	b.ne	2015e8 <out_num+0xf4>
  201618:	f94017a0 	ldr	x0, [x29,#40]
  20161c:	f100001f 	cmp	x0, #0x0
  201620:	540000ea 	b.ge	20163c <out_num+0x148>
  201624:	f94043a0 	ldr	x0, [x29,#128]
  201628:	d1000400 	sub	x0, x0, #0x1
  20162c:	f90043a0 	str	x0, [x29,#128]
  201630:	f94043a0 	ldr	x0, [x29,#128]
  201634:	528005a1 	mov	w1, #0x2d                  	// #45
  201638:	39000001 	strb	w1, [x0]
  20163c:	f94043a0 	ldr	x0, [x29,#128]
  201640:	97ffff9d 	bl	2014b4 <outs>
  201644:	a8c97bfd 	ldp	x29, x30, [sp],#144
  201648:	d65f03c0 	ret

000000000020164c <my_vprintf>:
  20164c:	a9bc7bfd 	stp	x29, x30, [sp,#-64]!
  201650:	910003fd 	mov	x29, sp
  201654:	f9000bf3 	str	x19, [sp,#16]
  201658:	f90017a0 	str	x0, [x29,#40]
  20165c:	aa0103f3 	mov	x19, x1
  201660:	52800400 	mov	w0, #0x20                  	// #32
  201664:	3900ffa0 	strb	w0, [x29,#63]
  201668:	b9003bbf 	str	wzr, [x29,#56]
  20166c:	140000fb 	b	201a58 <my_vprintf+0x40c>
  201670:	f94017a0 	ldr	x0, [x29,#40]
  201674:	39400000 	ldrb	w0, [x0]
  201678:	7100941f 	cmp	w0, #0x25
  20167c:	540000a0 	b.eq	201690 <my_vprintf+0x44>
  201680:	f94017a0 	ldr	x0, [x29,#40]
  201684:	39400000 	ldrb	w0, [x0]
  201688:	97ffff82 	bl	201490 <outc>
  20168c:	140000f0 	b	201a4c <my_vprintf+0x400>
  201690:	52800400 	mov	w0, #0x20                  	// #32
  201694:	3900ffa0 	strb	w0, [x29,#63]
  201698:	b9003bbf 	str	wzr, [x29,#56]
  20169c:	f94017a0 	ldr	x0, [x29,#40]
  2016a0:	91000400 	add	x0, x0, #0x1
  2016a4:	f90017a0 	str	x0, [x29,#40]
  2016a8:	f94017a0 	ldr	x0, [x29,#40]
  2016ac:	39400000 	ldrb	w0, [x0]
  2016b0:	7100c01f 	cmp	w0, #0x30
  2016b4:	540002c1 	b.ne	20170c <my_vprintf+0xc0>
  2016b8:	52800600 	mov	w0, #0x30                  	// #48
  2016bc:	3900ffa0 	strb	w0, [x29,#63]
  2016c0:	f94017a0 	ldr	x0, [x29,#40]
  2016c4:	91000400 	add	x0, x0, #0x1
  2016c8:	f90017a0 	str	x0, [x29,#40]
  2016cc:	14000010 	b	20170c <my_vprintf+0xc0>
  2016d0:	b9403ba1 	ldr	w1, [x29,#56]
  2016d4:	2a0103e0 	mov	w0, w1
  2016d8:	531e7400 	lsl	w0, w0, #2
  2016dc:	0b010000 	add	w0, w0, w1
  2016e0:	531f7800 	lsl	w0, w0, #1
  2016e4:	b9003ba0 	str	w0, [x29,#56]
  2016e8:	f94017a0 	ldr	x0, [x29,#40]
  2016ec:	39400000 	ldrb	w0, [x0]
  2016f0:	5100c000 	sub	w0, w0, #0x30
  2016f4:	b9403ba1 	ldr	w1, [x29,#56]
  2016f8:	0b000020 	add	w0, w1, w0
  2016fc:	b9003ba0 	str	w0, [x29,#56]
  201700:	f94017a0 	ldr	x0, [x29,#40]
  201704:	91000400 	add	x0, x0, #0x1
  201708:	f90017a0 	str	x0, [x29,#40]
  20170c:	f94017a0 	ldr	x0, [x29,#40]
  201710:	39400000 	ldrb	w0, [x0]
  201714:	7100bc1f 	cmp	w0, #0x2f
  201718:	540000a9 	b.ls	20172c <my_vprintf+0xe0>
  20171c:	f94017a0 	ldr	x0, [x29,#40]
  201720:	39400000 	ldrb	w0, [x0]
  201724:	7100e41f 	cmp	w0, #0x39
  201728:	54fffd49 	b.ls	2016d0 <my_vprintf+0x84>
  20172c:	f94017a0 	ldr	x0, [x29,#40]
  201730:	39400000 	ldrb	w0, [x0]
  201734:	7101bc1f 	cmp	w0, #0x6f
  201738:	540005c0 	b.eq	2017f0 <my_vprintf+0x1a4>
  20173c:	7101bc1f 	cmp	w0, #0x6f
  201740:	540000cc 	b.gt	201758 <my_vprintf+0x10c>
  201744:	71018c1f 	cmp	w0, #0x63
  201748:	540010e0 	b.eq	201964 <my_vprintf+0x318>
  20174c:	7101901f 	cmp	w0, #0x64
  201750:	54000120 	b.eq	201774 <my_vprintf+0x128>
  201754:	140000ba 	b	201a3c <my_vprintf+0x3f0>
  201758:	7101d41f 	cmp	w0, #0x75
  20175c:	54000880 	b.eq	20186c <my_vprintf+0x220>
  201760:	7101e01f 	cmp	w0, #0x78
  201764:	54000c20 	b.eq	2018e8 <my_vprintf+0x29c>
  201768:	7101cc1f 	cmp	w0, #0x73
  20176c:	54001320 	b.eq	2019d0 <my_vprintf+0x384>
  201770:	140000b3 	b	201a3c <my_vprintf+0x3f0>
  201774:	b9401a60 	ldr	w0, [x19,#24]
  201778:	f9400261 	ldr	x1, [x19]
  20177c:	7100001f 	cmp	w0, #0x0
  201780:	540000eb 	b.lt	20179c <my_vprintf+0x150>
  201784:	aa0103e0 	mov	x0, x1
  201788:	91002c00 	add	x0, x0, #0xb
  20178c:	927df000 	and	x0, x0, #0xfffffffffffffff8
  201790:	f9000260 	str	x0, [x19]
  201794:	aa0103e0 	mov	x0, x1
  201798:	1400000f 	b	2017d4 <my_vprintf+0x188>
  20179c:	11002002 	add	w2, w0, #0x8
  2017a0:	b9001a62 	str	w2, [x19,#24]
  2017a4:	b9401a62 	ldr	w2, [x19,#24]
  2017a8:	7100005f 	cmp	w2, #0x0
  2017ac:	540000ed 	b.le	2017c8 <my_vprintf+0x17c>
  2017b0:	aa0103e0 	mov	x0, x1
  2017b4:	91002c00 	add	x0, x0, #0xb
  2017b8:	927df000 	and	x0, x0, #0xfffffffffffffff8
  2017bc:	f9000260 	str	x0, [x19]
  2017c0:	aa0103e0 	mov	x0, x1
  2017c4:	14000004 	b	2017d4 <my_vprintf+0x188>
  2017c8:	f9400661 	ldr	x1, [x19,#8]
  2017cc:	93407c00 	sxtw	x0, w0
  2017d0:	8b000020 	add	x0, x1, x0
  2017d4:	b9400000 	ldr	w0, [x0]
  2017d8:	93407c00 	sxtw	x0, w0
  2017dc:	b9403ba3 	ldr	w3, [x29,#56]
  2017e0:	3940ffa2 	ldrb	w2, [x29,#63]
  2017e4:	52800141 	mov	w1, #0xa                   	// #10
  2017e8:	97ffff43 	bl	2014f4 <out_num>
  2017ec:	14000098 	b	201a4c <my_vprintf+0x400>
  2017f0:	b9401a60 	ldr	w0, [x19,#24]
  2017f4:	f9400261 	ldr	x1, [x19]
  2017f8:	7100001f 	cmp	w0, #0x0
  2017fc:	540000eb 	b.lt	201818 <my_vprintf+0x1cc>
  201800:	aa0103e0 	mov	x0, x1
  201804:	91002c00 	add	x0, x0, #0xb
  201808:	927df000 	and	x0, x0, #0xfffffffffffffff8
  20180c:	f9000260 	str	x0, [x19]
  201810:	aa0103e0 	mov	x0, x1
  201814:	1400000f 	b	201850 <my_vprintf+0x204>
  201818:	11002002 	add	w2, w0, #0x8
  20181c:	b9001a62 	str	w2, [x19,#24]
  201820:	b9401a62 	ldr	w2, [x19,#24]
  201824:	7100005f 	cmp	w2, #0x0
  201828:	540000ed 	b.le	201844 <my_vprintf+0x1f8>
  20182c:	aa0103e0 	mov	x0, x1
  201830:	91002c00 	add	x0, x0, #0xb
  201834:	927df000 	and	x0, x0, #0xfffffffffffffff8
  201838:	f9000260 	str	x0, [x19]
  20183c:	aa0103e0 	mov	x0, x1
  201840:	14000004 	b	201850 <my_vprintf+0x204>
  201844:	f9400661 	ldr	x1, [x19,#8]
  201848:	93407c00 	sxtw	x0, w0
  20184c:	8b000020 	add	x0, x1, x0
  201850:	b9400000 	ldr	w0, [x0]
  201854:	2a0003e0 	mov	w0, w0
  201858:	b9403ba3 	ldr	w3, [x29,#56]
  20185c:	3940ffa2 	ldrb	w2, [x29,#63]
  201860:	52800101 	mov	w1, #0x8                   	// #8
  201864:	97ffff24 	bl	2014f4 <out_num>
  201868:	14000079 	b	201a4c <my_vprintf+0x400>
  20186c:	b9401a60 	ldr	w0, [x19,#24]
  201870:	f9400261 	ldr	x1, [x19]
  201874:	7100001f 	cmp	w0, #0x0
  201878:	540000eb 	b.lt	201894 <my_vprintf+0x248>
  20187c:	aa0103e0 	mov	x0, x1
  201880:	91002c00 	add	x0, x0, #0xb
  201884:	927df000 	and	x0, x0, #0xfffffffffffffff8
  201888:	f9000260 	str	x0, [x19]
  20188c:	aa0103e0 	mov	x0, x1
  201890:	1400000f 	b	2018cc <my_vprintf+0x280>
  201894:	11002002 	add	w2, w0, #0x8
  201898:	b9001a62 	str	w2, [x19,#24]
  20189c:	b9401a62 	ldr	w2, [x19,#24]
  2018a0:	7100005f 	cmp	w2, #0x0
  2018a4:	540000ed 	b.le	2018c0 <my_vprintf+0x274>
  2018a8:	aa0103e0 	mov	x0, x1
  2018ac:	91002c00 	add	x0, x0, #0xb
  2018b0:	927df000 	and	x0, x0, #0xfffffffffffffff8
  2018b4:	f9000260 	str	x0, [x19]
  2018b8:	aa0103e0 	mov	x0, x1
  2018bc:	14000004 	b	2018cc <my_vprintf+0x280>
  2018c0:	f9400661 	ldr	x1, [x19,#8]
  2018c4:	93407c00 	sxtw	x0, w0
  2018c8:	8b000020 	add	x0, x1, x0
  2018cc:	b9400000 	ldr	w0, [x0]
  2018d0:	2a0003e0 	mov	w0, w0
  2018d4:	b9403ba3 	ldr	w3, [x29,#56]
  2018d8:	3940ffa2 	ldrb	w2, [x29,#63]
  2018dc:	52800141 	mov	w1, #0xa                   	// #10
  2018e0:	97ffff05 	bl	2014f4 <out_num>
  2018e4:	1400005a 	b	201a4c <my_vprintf+0x400>
  2018e8:	b9401a60 	ldr	w0, [x19,#24]
  2018ec:	f9400261 	ldr	x1, [x19]
  2018f0:	7100001f 	cmp	w0, #0x0
  2018f4:	540000eb 	b.lt	201910 <my_vprintf+0x2c4>
  2018f8:	aa0103e0 	mov	x0, x1
  2018fc:	91002c00 	add	x0, x0, #0xb
  201900:	927df000 	and	x0, x0, #0xfffffffffffffff8
  201904:	f9000260 	str	x0, [x19]
  201908:	aa0103e0 	mov	x0, x1
  20190c:	1400000f 	b	201948 <my_vprintf+0x2fc>
  201910:	11002002 	add	w2, w0, #0x8
  201914:	b9001a62 	str	w2, [x19,#24]
  201918:	b9401a62 	ldr	w2, [x19,#24]
  20191c:	7100005f 	cmp	w2, #0x0
  201920:	540000ed 	b.le	20193c <my_vprintf+0x2f0>
  201924:	aa0103e0 	mov	x0, x1
  201928:	91002c00 	add	x0, x0, #0xb
  20192c:	927df000 	and	x0, x0, #0xfffffffffffffff8
  201930:	f9000260 	str	x0, [x19]
  201934:	aa0103e0 	mov	x0, x1
  201938:	14000004 	b	201948 <my_vprintf+0x2fc>
  20193c:	f9400661 	ldr	x1, [x19,#8]
  201940:	93407c00 	sxtw	x0, w0
  201944:	8b000020 	add	x0, x1, x0
  201948:	b9400000 	ldr	w0, [x0]
  20194c:	2a0003e0 	mov	w0, w0
  201950:	b9403ba3 	ldr	w3, [x29,#56]
  201954:	3940ffa2 	ldrb	w2, [x29,#63]
  201958:	52800201 	mov	w1, #0x10                  	// #16
  20195c:	97fffee6 	bl	2014f4 <out_num>
  201960:	1400003b 	b	201a4c <my_vprintf+0x400>
  201964:	b9401a60 	ldr	w0, [x19,#24]
  201968:	f9400261 	ldr	x1, [x19]
  20196c:	7100001f 	cmp	w0, #0x0
  201970:	540000eb 	b.lt	20198c <my_vprintf+0x340>
  201974:	aa0103e0 	mov	x0, x1
  201978:	91002c00 	add	x0, x0, #0xb
  20197c:	927df000 	and	x0, x0, #0xfffffffffffffff8
  201980:	f9000260 	str	x0, [x19]
  201984:	aa0103e0 	mov	x0, x1
  201988:	1400000f 	b	2019c4 <my_vprintf+0x378>
  20198c:	11002002 	add	w2, w0, #0x8
  201990:	b9001a62 	str	w2, [x19,#24]
  201994:	b9401a62 	ldr	w2, [x19,#24]
  201998:	7100005f 	cmp	w2, #0x0
  20199c:	540000ed 	b.le	2019b8 <my_vprintf+0x36c>
  2019a0:	aa0103e0 	mov	x0, x1
  2019a4:	91002c00 	add	x0, x0, #0xb
  2019a8:	927df000 	and	x0, x0, #0xfffffffffffffff8
  2019ac:	f9000260 	str	x0, [x19]
  2019b0:	aa0103e0 	mov	x0, x1
  2019b4:	14000004 	b	2019c4 <my_vprintf+0x378>
  2019b8:	f9400661 	ldr	x1, [x19,#8]
  2019bc:	93407c00 	sxtw	x0, w0
  2019c0:	8b000020 	add	x0, x1, x0
  2019c4:	b9400000 	ldr	w0, [x0]
  2019c8:	97fffeb2 	bl	201490 <outc>
  2019cc:	14000020 	b	201a4c <my_vprintf+0x400>
  2019d0:	b9401a60 	ldr	w0, [x19,#24]
  2019d4:	f9400261 	ldr	x1, [x19]
  2019d8:	7100001f 	cmp	w0, #0x0
  2019dc:	540000eb 	b.lt	2019f8 <my_vprintf+0x3ac>
  2019e0:	aa0103e0 	mov	x0, x1
  2019e4:	91003c00 	add	x0, x0, #0xf
  2019e8:	927df000 	and	x0, x0, #0xfffffffffffffff8
  2019ec:	f9000260 	str	x0, [x19]
  2019f0:	aa0103e0 	mov	x0, x1
  2019f4:	1400000f 	b	201a30 <my_vprintf+0x3e4>
  2019f8:	11002002 	add	w2, w0, #0x8
  2019fc:	b9001a62 	str	w2, [x19,#24]
  201a00:	b9401a62 	ldr	w2, [x19,#24]
  201a04:	7100005f 	cmp	w2, #0x0
  201a08:	540000ed 	b.le	201a24 <my_vprintf+0x3d8>
  201a0c:	aa0103e0 	mov	x0, x1
  201a10:	91003c00 	add	x0, x0, #0xf
  201a14:	927df000 	and	x0, x0, #0xfffffffffffffff8
  201a18:	f9000260 	str	x0, [x19]
  201a1c:	aa0103e0 	mov	x0, x1
  201a20:	14000004 	b	201a30 <my_vprintf+0x3e4>
  201a24:	f9400661 	ldr	x1, [x19,#8]
  201a28:	93407c00 	sxtw	x0, w0
  201a2c:	8b000020 	add	x0, x1, x0
  201a30:	f9400000 	ldr	x0, [x0]
  201a34:	97fffea0 	bl	2014b4 <outs>
  201a38:	14000005 	b	201a4c <my_vprintf+0x400>
  201a3c:	f94017a0 	ldr	x0, [x29,#40]
  201a40:	39400000 	ldrb	w0, [x0]
  201a44:	97fffe93 	bl	201490 <outc>
  201a48:	d503201f 	nop
  201a4c:	f94017a0 	ldr	x0, [x29,#40]
  201a50:	91000400 	add	x0, x0, #0x1
  201a54:	f90017a0 	str	x0, [x29,#40]
  201a58:	f94017a0 	ldr	x0, [x29,#40]
  201a5c:	39400000 	ldrb	w0, [x0]
  201a60:	7100001f 	cmp	w0, #0x0
  201a64:	54ffe061 	b.ne	201670 <my_vprintf+0x24>
  201a68:	52800000 	mov	w0, #0x0                   	// #0
  201a6c:	f9400bf3 	ldr	x19, [sp,#16]
  201a70:	a8c47bfd 	ldp	x29, x30, [sp],#64
  201a74:	d65f03c0 	ret

0000000000201a78 <my_printf>:
  201a78:	a9ae7bfd 	stp	x29, x30, [sp,#-288]!
  201a7c:	910003fd 	mov	x29, sp
  201a80:	f9001fa0 	str	x0, [x29,#56]
  201a84:	f90077a1 	str	x1, [x29,#232]
  201a88:	f9007ba2 	str	x2, [x29,#240]
  201a8c:	f9007fa3 	str	x3, [x29,#248]
  201a90:	f90083a4 	str	x4, [x29,#256]
  201a94:	f90087a5 	str	x5, [x29,#264]
  201a98:	f9008ba6 	str	x6, [x29,#272]
  201a9c:	f9008fa7 	str	x7, [x29,#280]
  201aa0:	3d801ba0 	str	q0, [x29,#96]
  201aa4:	3d801fa1 	str	q1, [x29,#112]
  201aa8:	3d8023a2 	str	q2, [x29,#128]
  201aac:	3d8027a3 	str	q3, [x29,#144]
  201ab0:	3d802ba4 	str	q4, [x29,#160]
  201ab4:	3d802fa5 	str	q5, [x29,#176]
  201ab8:	3d8033a6 	str	q6, [x29,#192]
  201abc:	3d8037a7 	str	q7, [x29,#208]
  201ac0:	910483a0 	add	x0, x29, #0x120
  201ac4:	f90023a0 	str	x0, [x29,#64]
  201ac8:	910483a0 	add	x0, x29, #0x120
  201acc:	f90027a0 	str	x0, [x29,#72]
  201ad0:	910383a0 	add	x0, x29, #0xe0
  201ad4:	f9002ba0 	str	x0, [x29,#80]
  201ad8:	128006e0 	mov	w0, #0xffffffc8            	// #-56
  201adc:	b9005ba0 	str	w0, [x29,#88]
  201ae0:	12800fe0 	mov	w0, #0xffffff80            	// #-128
  201ae4:	b9005fa0 	str	w0, [x29,#92]
  201ae8:	910043a2 	add	x2, x29, #0x10
  201aec:	910103a3 	add	x3, x29, #0x40
  201af0:	a9400460 	ldp	x0, x1, [x3]
  201af4:	a9000440 	stp	x0, x1, [x2]
  201af8:	a9410460 	ldp	x0, x1, [x3,#16]
  201afc:	a9010440 	stp	x0, x1, [x2,#16]
  201b00:	910043a0 	add	x0, x29, #0x10
  201b04:	aa0003e1 	mov	x1, x0
  201b08:	f9401fa0 	ldr	x0, [x29,#56]
  201b0c:	97fffed0 	bl	20164c <my_vprintf>
  201b10:	52800000 	mov	w0, #0x0                   	// #0
  201b14:	a8d27bfd 	ldp	x29, x30, [sp],#288
  201b18:	d65f03c0 	ret

0000000000201b1c <printf_test>:
  201b1c:	a9bf7bfd 	stp	x29, x30, [sp,#-16]!
  201b20:	910003fd 	mov	x29, sp
  201b24:	b0000000 	adrp	x0, 202000 <test_timer_irq+0x64>
  201b28:	912f2000 	add	x0, x0, #0xbc8
  201b2c:	97ffffd3 	bl	201a78 <my_printf>
  201b30:	b0000000 	adrp	x0, 202000 <test_timer_irq+0x64>
  201b34:	912fc000 	add	x0, x0, #0xbf0
  201b38:	52800d43 	mov	w3, #0x6a                  	// #106
  201b3c:	52800d42 	mov	w2, #0x6a                  	// #106
  201b40:	52800f41 	mov	w1, #0x7a                  	// #122
  201b44:	97ffffcd 	bl	201a78 <my_printf>
  201b48:	b0000000 	adrp	x0, 202000 <test_timer_irq+0x64>
  201b4c:	91306000 	add	x0, x0, #0xc18
  201b50:	529c4801 	mov	w1, #0xe240                	// #57920
  201b54:	72a00021 	movk	w1, #0x1, lsl #16
  201b58:	97ffffc8 	bl	201a78 <my_printf>
  201b5c:	b0000000 	adrp	x0, 202000 <test_timer_irq+0x64>
  201b60:	9130e000 	add	x0, x0, #0xc38
  201b64:	5283b801 	mov	w1, #0x1dc0                	// #7616
  201b68:	72bfffc1 	movk	w1, #0xfffe, lsl #16
  201b6c:	97ffffc3 	bl	201a78 <my_printf>
  201b70:	b0000000 	adrp	x0, 202000 <test_timer_irq+0x64>
  201b74:	91316000 	add	x0, x0, #0xc58
  201b78:	52868ac1 	mov	w1, #0x3456                	// #13398
  201b7c:	72a00241 	movk	w1, #0x12, lsl #16
  201b80:	97ffffbe 	bl	201a78 <my_printf>
  201b84:	b0000000 	adrp	x0, 202000 <test_timer_irq+0x64>
  201b88:	9131e000 	add	x0, x0, #0xc78
  201b8c:	52868ac1 	mov	w1, #0x3456                	// #13398
  201b90:	72a00241 	movk	w1, #0x12, lsl #16
  201b94:	97ffffb9 	bl	201a78 <my_printf>
  201b98:	b0000000 	adrp	x0, 202000 <test_timer_irq+0x64>
  201b9c:	91326001 	add	x1, x0, #0xc98
  201ba0:	b0000000 	adrp	x0, 202000 <test_timer_irq+0x64>
  201ba4:	9132c000 	add	x0, x0, #0xcb0
  201ba8:	97ffffb4 	bl	201a78 <my_printf>
  201bac:	52800000 	mov	w0, #0x0                   	// #0
  201bb0:	a8c17bfd 	ldp	x29, x30, [sp],#16
  201bb4:	d65f03c0 	ret

0000000000201bb8 <puts>:
  201bb8:	a9be7bfd 	stp	x29, x30, [sp,#-32]!
  201bbc:	910003fd 	mov	x29, sp
  201bc0:	f9000fa0 	str	x0, [x29,#24]
  201bc4:	14000006 	b	201bdc <puts+0x24>
  201bc8:	f9400fa0 	ldr	x0, [x29,#24]
  201bcc:	91000401 	add	x1, x0, #0x1
  201bd0:	f9000fa1 	str	x1, [x29,#24]
  201bd4:	39400000 	ldrb	w0, [x0]
  201bd8:	97fffdc9 	bl	2012fc <rk_uart_sendbyte>
  201bdc:	f9400fa0 	ldr	x0, [x29,#24]
  201be0:	39400000 	ldrb	w0, [x0]
  201be4:	7100001f 	cmp	w0, #0x0
  201be8:	54ffff01 	b.ne	201bc8 <puts+0x10>
  201bec:	d503201f 	nop
  201bf0:	a8c27bfd 	ldp	x29, x30, [sp],#32
  201bf4:	d65f03c0 	ret

0000000000201bf8 <delay_us>:
  201bf8:	d10083ff 	sub	sp, sp, #0x20
  201bfc:	f90007e0 	str	x0, [sp,#8]
  201c00:	f94007e1 	ldr	x1, [sp,#8]
  201c04:	aa0103e0 	mov	x0, x1
  201c08:	d37ff800 	lsl	x0, x0, #1
  201c0c:	8b010000 	add	x0, x0, x1
  201c10:	d37df000 	lsl	x0, x0, #3
  201c14:	f9000fe0 	str	x0, [sp,#24]
  201c18:	d2801000 	mov	x0, #0x80                  	// #128
  201c1c:	f2bff0a0 	movk	x0, #0xff85, lsl #16
  201c20:	d2801001 	mov	x1, #0x80                  	// #128
  201c24:	f2bff0a1 	movk	x1, #0xff85, lsl #16
  201c28:	b9401c21 	ldr	w1, [x1,#28]
  201c2c:	121f7821 	and	w1, w1, #0xfffffffe
  201c30:	b9001c01 	str	w1, [x0,#28]
  201c34:	d2801000 	mov	x0, #0x80                  	// #128
  201c38:	f2bff0a0 	movk	x0, #0xff85, lsl #16
  201c3c:	d2801001 	mov	x1, #0x80                  	// #128
  201c40:	f2bff0a1 	movk	x1, #0xff85, lsl #16
  201c44:	b9401c21 	ldr	w1, [x1,#28]
  201c48:	321f0021 	orr	w1, w1, #0x2
  201c4c:	b9001c01 	str	w1, [x0,#28]
  201c50:	d2801000 	mov	x0, #0x80                  	// #128
  201c54:	f2bff0a0 	movk	x0, #0xff85, lsl #16
  201c58:	d2801001 	mov	x1, #0x80                  	// #128
  201c5c:	f2bff0a1 	movk	x1, #0xff85, lsl #16
  201c60:	b9401c21 	ldr	w1, [x1,#28]
  201c64:	121d7821 	and	w1, w1, #0xfffffffb
  201c68:	b9001c01 	str	w1, [x0,#28]
  201c6c:	d2801000 	mov	x0, #0x80                  	// #128
  201c70:	f2bff0a0 	movk	x0, #0xff85, lsl #16
  201c74:	f9400fe1 	ldr	x1, [sp,#24]
  201c78:	b9000001 	str	w1, [x0]
  201c7c:	d2801000 	mov	x0, #0x80                  	// #128
  201c80:	f2bff0a0 	movk	x0, #0xff85, lsl #16
  201c84:	d2801001 	mov	x1, #0x80                  	// #128
  201c88:	f2bff0a1 	movk	x1, #0xff85, lsl #16
  201c8c:	b9401c21 	ldr	w1, [x1,#28]
  201c90:	32000021 	orr	w1, w1, #0x1
  201c94:	b9001c01 	str	w1, [x0,#28]
  201c98:	d503201f 	nop
  201c9c:	d2801000 	mov	x0, #0x80                  	// #128
  201ca0:	f2bff0a0 	movk	x0, #0xff85, lsl #16
  201ca4:	b9401800 	ldr	w0, [x0,#24]
  201ca8:	12000000 	and	w0, w0, #0x1
  201cac:	7100001f 	cmp	w0, #0x0
  201cb0:	54ffff60 	b.eq	201c9c <delay_us+0xa4>
  201cb4:	d2801000 	mov	x0, #0x80                  	// #128
  201cb8:	f2bff0a0 	movk	x0, #0xff85, lsl #16
  201cbc:	d2801001 	mov	x1, #0x80                  	// #128
  201cc0:	f2bff0a1 	movk	x1, #0xff85, lsl #16
  201cc4:	b9401821 	ldr	w1, [x1,#24]
  201cc8:	32000021 	orr	w1, w1, #0x1
  201ccc:	b9001801 	str	w1, [x0,#24]
  201cd0:	d2801000 	mov	x0, #0x80                  	// #128
  201cd4:	f2bff0a0 	movk	x0, #0xff85, lsl #16
  201cd8:	d2801001 	mov	x1, #0x80                  	// #128
  201cdc:	f2bff0a1 	movk	x1, #0xff85, lsl #16
  201ce0:	b9401c21 	ldr	w1, [x1,#28]
  201ce4:	121f7821 	and	w1, w1, #0xfffffffe
  201ce8:	b9001c01 	str	w1, [x0,#28]
  201cec:	d503201f 	nop
  201cf0:	910083ff 	add	sp, sp, #0x20
  201cf4:	d65f03c0 	ret

0000000000201cf8 <delay_ms>:
  201cf8:	a9be7bfd 	stp	x29, x30, [sp,#-32]!
  201cfc:	910003fd 	mov	x29, sp
  201d00:	f9000fa0 	str	x0, [x29,#24]
  201d04:	14000006 	b	201d1c <delay_ms+0x24>
  201d08:	d2807d00 	mov	x0, #0x3e8                 	// #1000
  201d0c:	97ffffbb 	bl	201bf8 <delay_us>
  201d10:	f9400fa0 	ldr	x0, [x29,#24]
  201d14:	d1000400 	sub	x0, x0, #0x1
  201d18:	f9000fa0 	str	x0, [x29,#24]
  201d1c:	f9400fa0 	ldr	x0, [x29,#24]
  201d20:	f100001f 	cmp	x0, #0x0
  201d24:	54ffff21 	b.ne	201d08 <delay_ms+0x10>
  201d28:	d503201f 	nop
  201d2c:	a8c27bfd 	ldp	x29, x30, [sp],#32
  201d30:	d65f03c0 	ret

0000000000201d34 <delay_s>:
  201d34:	a9be7bfd 	stp	x29, x30, [sp,#-32]!
  201d38:	910003fd 	mov	x29, sp
  201d3c:	f9000fa0 	str	x0, [x29,#24]
  201d40:	14000006 	b	201d58 <delay_s+0x24>
  201d44:	d2807d00 	mov	x0, #0x3e8                 	// #1000
  201d48:	97ffffec 	bl	201cf8 <delay_ms>
  201d4c:	f9400fa0 	ldr	x0, [x29,#24]
  201d50:	d1000400 	sub	x0, x0, #0x1
  201d54:	f9000fa0 	str	x0, [x29,#24]
  201d58:	f9400fa0 	ldr	x0, [x29,#24]
  201d5c:	f100001f 	cmp	x0, #0x0
  201d60:	54ffff21 	b.ne	201d44 <delay_s+0x10>
  201d64:	d503201f 	nop
  201d68:	a8c27bfd 	ldp	x29, x30, [sp],#32
  201d6c:	d65f03c0 	ret

0000000000201d70 <irq_init>:
  201d70:	d503201f 	nop
  201d74:	d65f03c0 	ret

0000000000201d78 <enable_interrupts>:
  201d78:	a9bf7bfd 	stp	x29, x30, [sp,#-16]!
  201d7c:	910003fd 	mov	x29, sp
  201d80:	b0000000 	adrp	x0, 202000 <test_timer_irq+0x64>
  201d84:	91334000 	add	x0, x0, #0xcd0
  201d88:	97ffff3c 	bl	201a78 <my_printf>
  201d8c:	d50343ff 	msr	daifclr, #0x3
  201d90:	d503201f 	nop
  201d94:	a8c17bfd 	ldp	x29, x30, [sp],#16
  201d98:	d65f03c0 	ret

0000000000201d9c <irq_install_handler>:
  201d9c:	a9bd7bfd 	stp	x29, x30, [sp,#-48]!
  201da0:	910003fd 	mov	x29, sp
  201da4:	b9002fa0 	str	w0, [x29,#44]
  201da8:	f90013a1 	str	x1, [x29,#32]
  201dac:	f9000fa2 	str	x2, [x29,#24]
  201db0:	b0000000 	adrp	x0, 202000 <test_timer_irq+0x64>
  201db4:	9133a000 	add	x0, x0, #0xce8
  201db8:	97ffff30 	bl	201a78 <my_printf>
  201dbc:	b0000000 	adrp	x0, 202000 <test_timer_irq+0x64>
  201dc0:	91390000 	add	x0, x0, #0xe40
  201dc4:	b9802fa1 	ldrsw	x1, [x29,#44]
  201dc8:	f8617801 	ldr	x1, [x0,x1,lsl #3]
  201dcc:	f94013a0 	ldr	x0, [x29,#32]
  201dd0:	eb00003f 	cmp	x1, x0
  201dd4:	540000c0 	b.eq	201dec <irq_install_handler+0x50>
  201dd8:	b0000000 	adrp	x0, 202000 <test_timer_irq+0x64>
  201ddc:	91390000 	add	x0, x0, #0xe40
  201de0:	b9802fa1 	ldrsw	x1, [x29,#44]
  201de4:	f94013a2 	ldr	x2, [x29,#32]
  201de8:	f8217802 	str	x2, [x0,x1,lsl #3]
  201dec:	d503201f 	nop
  201df0:	a8c37bfd 	ldp	x29, x30, [sp],#48
  201df4:	d65f03c0 	ret

0000000000201df8 <irq_handler_enable>:
  201df8:	a9bd7bfd 	stp	x29, x30, [sp,#-48]!
  201dfc:	910003fd 	mov	x29, sp
  201e00:	b9001fa0 	str	w0, [x29,#28]
  201e04:	b0000000 	adrp	x0, 202000 <test_timer_irq+0x64>
  201e08:	91340000 	add	x0, x0, #0xd00
  201e0c:	97ffff1b 	bl	201a78 <my_printf>
  201e10:	b9401fa0 	ldr	w0, [x29,#28]
  201e14:	7102fc1f 	cmp	w0, #0xbf
  201e18:	5400006d 	b.le	201e24 <irq_handler_enable+0x2c>
  201e1c:	12800000 	mov	w0, #0xffffffff            	// #-1
  201e20:	1400001c 	b	201e90 <irq_handler_enable+0x98>
  201e24:	b9401fa0 	ldr	w0, [x29,#28]
  201e28:	11007c01 	add	w1, w0, #0x1f
  201e2c:	7100001f 	cmp	w0, #0x0
  201e30:	1a80b020 	csel	w0, w1, w0, lt
  201e34:	13057c00 	asr	w0, w0, #5
  201e38:	93407c00 	sxtw	x0, w0
  201e3c:	f90017a0 	str	x0, [x29,#40]
  201e40:	b9401fa0 	ldr	w0, [x29,#28]
  201e44:	6b0003e1 	negs	w1, w0
  201e48:	12001000 	and	w0, w0, #0x1f
  201e4c:	12001021 	and	w1, w1, #0x1f
  201e50:	5a814400 	csneg	w0, w0, w1, mi
  201e54:	93407c00 	sxtw	x0, w0
  201e58:	f90013a0 	str	x0, [x29,#32]
  201e5c:	d2bfdc00 	mov	x0, #0xfee00000            	// #4276092928
  201e60:	f94013a1 	ldr	x1, [x29,#32]
  201e64:	2a0103e2 	mov	w2, w1
  201e68:	52800021 	mov	w1, #0x1                   	// #1
  201e6c:	1ac22021 	lsl	w1, w1, w2
  201e70:	2a0103e2 	mov	w2, w1
  201e74:	f94017a1 	ldr	x1, [x29,#40]
  201e78:	91010021 	add	x1, x1, #0x40
  201e7c:	b8217802 	str	w2, [x0,x1,lsl #2]
  201e80:	b0000000 	adrp	x0, 202000 <test_timer_irq+0x64>
  201e84:	91348000 	add	x0, x0, #0xd20
  201e88:	97fffefc 	bl	201a78 <my_printf>
  201e8c:	52800000 	mov	w0, #0x0                   	// #0
  201e90:	a8c37bfd 	ldp	x29, x30, [sp],#48
  201e94:	d65f03c0 	ret

0000000000201e98 <my_do_irq>:
  201e98:	a9be7bfd 	stp	x29, x30, [sp,#-32]!
  201e9c:	910003fd 	mov	x29, sp
  201ea0:	b0000000 	adrp	x0, 202000 <test_timer_irq+0x64>
  201ea4:	91350000 	add	x0, x0, #0xd40
  201ea8:	97fffef4 	bl	201a78 <my_printf>
  201eac:	d538cc00 	mrs	x0, s3_0_c12_c12_0
  201eb0:	f9000fa0 	str	x0, [x29,#24]
  201eb4:	f9400fa0 	ldr	x0, [x29,#24]
  201eb8:	92402400 	and	x0, x0, #0x3ff
  201ebc:	f9000ba0 	str	x0, [x29,#16]
  201ec0:	f9400ba0 	ldr	x0, [x29,#16]
  201ec4:	f102fc1f 	cmp	x0, #0xbf
  201ec8:	540000e8 	b.hi	201ee4 <my_do_irq+0x4c>
  201ecc:	b0000000 	adrp	x0, 202000 <test_timer_irq+0x64>
  201ed0:	91390000 	add	x0, x0, #0xe40
  201ed4:	f9400ba1 	ldr	x1, [x29,#16]
  201ed8:	f8617801 	ldr	x1, [x0,x1,lsl #3]
  201edc:	f9400ba0 	ldr	x0, [x29,#16]
  201ee0:	d63f0020 	blr	x1
  201ee4:	f9400ba0 	ldr	x0, [x29,#16]
  201ee8:	d518cc20 	msr	s3_0_c12_c12_1, x0
  201eec:	f9400ba0 	ldr	x0, [x29,#16]
  201ef0:	d518cb20 	msr	s3_0_c12_c11_1, x0
  201ef4:	d5033fdf 	isb
  201ef8:	b0000000 	adrp	x0, 202000 <test_timer_irq+0x64>
  201efc:	91354000 	add	x0, x0, #0xd50
  201f00:	97fffede 	bl	201a78 <my_printf>
  201f04:	d503201f 	nop
  201f08:	a8c27bfd 	ldp	x29, x30, [sp],#32
  201f0c:	d65f03c0 	ret

0000000000201f10 <board_timer_isr>:
  201f10:	a9bf7bfd 	stp	x29, x30, [sp,#-16]!
  201f14:	910003fd 	mov	x29, sp
  201f18:	b0000000 	adrp	x0, 202000 <test_timer_irq+0x64>
  201f1c:	91358000 	add	x0, x0, #0xd60
  201f20:	97fffed6 	bl	201a78 <my_printf>
  201f24:	d2800c00 	mov	x0, #0x60                  	// #96
  201f28:	f2bff0a0 	movk	x0, #0xff85, lsl #16
  201f2c:	52800021 	mov	w1, #0x1                   	// #1
  201f30:	b9001801 	str	w1, [x0,#24]
  201f34:	d0000000 	adrp	x0, 203000 <g_irq_handler+0x1c0>
  201f38:	91250000 	add	x0, x0, #0x940
  201f3c:	39400000 	ldrb	w0, [x0]
  201f40:	7100001f 	cmp	w0, #0x0
  201f44:	54000081 	b.ne	201f54 <board_timer_isr+0x44>
  201f48:	52800000 	mov	w0, #0x0                   	// #0
  201f4c:	97fffc46 	bl	201064 <led_ctl>
  201f50:	14000003 	b	201f5c <board_timer_isr+0x4c>
  201f54:	52800020 	mov	w0, #0x1                   	// #1
  201f58:	97fffc43 	bl	201064 <led_ctl>
  201f5c:	d0000000 	adrp	x0, 203000 <g_irq_handler+0x1c0>
  201f60:	91250000 	add	x0, x0, #0x940
  201f64:	39400000 	ldrb	w0, [x0]
  201f68:	7100001f 	cmp	w0, #0x0
  201f6c:	1a9f17e0 	cset	w0, eq
  201f70:	12001c00 	and	w0, w0, #0xff
  201f74:	2a0003e1 	mov	w1, w0
  201f78:	d0000000 	adrp	x0, 203000 <g_irq_handler+0x1c0>
  201f7c:	91250000 	add	x0, x0, #0x940
  201f80:	39000001 	strb	w1, [x0]
  201f84:	b0000000 	adrp	x0, 202000 <test_timer_irq+0x64>
  201f88:	91360000 	add	x0, x0, #0xd80
  201f8c:	97fffebb 	bl	201a78 <my_printf>
  201f90:	d503201f 	nop
  201f94:	a8c17bfd 	ldp	x29, x30, [sp],#16
  201f98:	d65f03c0 	ret

0000000000201f9c <test_timer_irq>:
  201f9c:	a9bf7bfd 	stp	x29, x30, [sp,#-16]!
  201fa0:	910003fd 	mov	x29, sp
  201fa4:	b0000000 	adrp	x0, 202000 <test_timer_irq+0x64>
  201fa8:	91366000 	add	x0, x0, #0xd98
  201fac:	97fffeb3 	bl	201a78 <my_printf>
  201fb0:	97ffff72 	bl	201d78 <enable_interrupts>
  201fb4:	d2800c00 	mov	x0, #0x60                  	// #96
  201fb8:	f2bff0a0 	movk	x0, #0xff85, lsl #16
  201fbc:	12bfe001 	mov	w1, #0xffffff              	// #16777215
  201fc0:	b9000801 	str	w1, [x0,#8]
  201fc4:	d2800c00 	mov	x0, #0x60                  	// #96
  201fc8:	f2bff0a0 	movk	x0, #0xff85, lsl #16
  201fcc:	12bfe001 	mov	w1, #0xffffff              	// #16777215
  201fd0:	b9000001 	str	w1, [x0]
  201fd4:	d2800c00 	mov	x0, #0x60                  	// #96
  201fd8:	f2bff0a0 	movk	x0, #0xff85, lsl #16
  201fdc:	528000a1 	mov	w1, #0x5                   	// #5
  201fe0:	b9001c01 	str	w1, [x0,#28]
  201fe4:	90000000 	adrp	x0, 201000 <led_init+0x40>
  201fe8:	913c4000 	add	x0, x0, #0xf10
  201fec:	d2800002 	mov	x2, #0x0                   	// #0
  201ff0:	aa0003e1 	mov	x1, x0
  201ff4:	52800e80 	mov	w0, #0x74                  	// #116
  201ff8:	97ffff69 	bl	201d9c <irq_install_handler>
  201ffc:	52800e80 	mov	w0, #0x74                  	// #116
  202000:	97ffff7e 	bl	201df8 <irq_handler_enable>
  202004:	90000000 	adrp	x0, 202000 <test_timer_irq+0x64>
  202008:	9136c000 	add	x0, x0, #0xdb0
  20200c:	97fffe9b 	bl	201a78 <my_printf>
  202010:	d503201f 	nop
  202014:	a8c17bfd 	ldp	x29, x30, [sp],#16
  202018:	d65f03c0 	ret
  20201c:	00000000 	.inst	0x00000000 ; undefined

0000000000202020 <get_saradc_val>:
  202020:	a9bd7bfd 	stp	x29, x30, [sp,#-48]!
  202024:	910003fd 	mov	x29, sp
  202028:	39007fa0 	strb	w0, [x29,#31]
  20202c:	d2800100 	mov	x0, #0x8                   	// #8
  202030:	f2bfe200 	movk	x0, #0xff10, lsl #16
  202034:	d2800101 	mov	x1, #0x8                   	// #8
  202038:	f2bfe201 	movk	x1, #0xff10, lsl #16
  20203c:	b9400021 	ldr	w1, [x1]
  202040:	121c7821 	and	w1, w1, #0xfffffff7
  202044:	b9000001 	str	w1, [x0]
  202048:	d2800100 	mov	x0, #0x8                   	// #8
  20204c:	f2bfe200 	movk	x0, #0xff10, lsl #16
  202050:	d2800101 	mov	x1, #0x8                   	// #8
  202054:	f2bfe201 	movk	x1, #0xff10, lsl #16
  202058:	b9400022 	ldr	w2, [x1]
  20205c:	39407fa1 	ldrb	w1, [x29,#31]
  202060:	2a010041 	orr	w1, w2, w1
  202064:	b9000001 	str	w1, [x0]
  202068:	d2800100 	mov	x0, #0x8                   	// #8
  20206c:	f2bfe200 	movk	x0, #0xff10, lsl #16
  202070:	d2800101 	mov	x1, #0x8                   	// #8
  202074:	f2bfe201 	movk	x1, #0xff10, lsl #16
  202078:	b9400021 	ldr	w1, [x1]
  20207c:	321d0021 	orr	w1, w1, #0x8
  202080:	b9000001 	str	w1, [x0]
  202084:	d2800c80 	mov	x0, #0x64                  	// #100
  202088:	97fffedc 	bl	201bf8 <delay_us>
  20208c:	d503201f 	nop
  202090:	d2800080 	mov	x0, #0x4                   	// #4
  202094:	f2bfe200 	movk	x0, #0xff10, lsl #16
  202098:	b9400000 	ldr	w0, [x0]
  20209c:	12000000 	and	w0, w0, #0x1
  2020a0:	7100001f 	cmp	w0, #0x0
  2020a4:	54ffff61 	b.ne	202090 <get_saradc_val+0x70>
  2020a8:	d2bfe200 	mov	x0, #0xff100000            	// #4279238656
  2020ac:	b9400000 	ldr	w0, [x0]
  2020b0:	12002400 	and	w0, w0, #0x3ff
  2020b4:	b9002fa0 	str	w0, [x29,#44]
  2020b8:	b9402fa0 	ldr	w0, [x29,#44]
  2020bc:	a8c37bfd 	ldp	x29, x30, [sp],#48
  2020c0:	d65f03c0 	ret

00000000002020c4 <get_tsadc_temp>:
  2020c4:	a9bd7bfd 	stp	x29, x30, [sp,#-48]!
  2020c8:	910003fd 	mov	x29, sp
  2020cc:	39007fa0 	strb	w0, [x29,#31]
  2020d0:	39407fa0 	ldrb	w0, [x29,#31]
  2020d4:	7100001f 	cmp	w0, #0x0
  2020d8:	54000120 	b.eq	2020fc <get_tsadc_temp+0x38>
  2020dc:	39407fa0 	ldrb	w0, [x29,#31]
  2020e0:	7100041f 	cmp	w0, #0x1
  2020e4:	540000c0 	b.eq	2020fc <get_tsadc_temp+0x38>
  2020e8:	90000000 	adrp	x0, 202000 <test_timer_irq+0x64>
  2020ec:	91372000 	add	x0, x0, #0xdc8
  2020f0:	97fffe62 	bl	201a78 <my_printf>
  2020f4:	12801fc0 	mov	w0, #0xffffff01            	// #-255
  2020f8:	1400005d 	b	20226c <get_tsadc_temp+0x1a8>
  2020fc:	d2800080 	mov	x0, #0x4                   	// #4
  202100:	f2bfe4c0 	movk	x0, #0xff26, lsl #16
  202104:	d2800081 	mov	x1, #0x4                   	// #4
  202108:	f2bfe4c1 	movk	x1, #0xff26, lsl #16
  20210c:	b9400021 	ldr	w1, [x1]
  202110:	121f7821 	and	w1, w1, #0xfffffffe
  202114:	b9000001 	str	w1, [x0]
  202118:	d2800080 	mov	x0, #0x4                   	// #4
  20211c:	f2bfe4c0 	movk	x0, #0xff26, lsl #16
  202120:	d2800081 	mov	x1, #0x4                   	// #4
  202124:	f2bfe4c1 	movk	x1, #0xff26, lsl #16
  202128:	b9400021 	ldr	w1, [x1]
  20212c:	321f0021 	orr	w1, w1, #0x2
  202130:	b9000001 	str	w1, [x0]
  202134:	d2bfe4c0 	mov	x0, #0xff260000            	// #4280680448
  202138:	d2bfe4c1 	mov	x1, #0xff260000            	// #4280680448
  20213c:	b9400021 	ldr	w1, [x1]
  202140:	121d7021 	and	w1, w1, #0xfffffff8
  202144:	b9000001 	str	w1, [x0]
  202148:	d2bfe4c0 	mov	x0, #0xff260000            	// #4280680448
  20214c:	d2bfe4c1 	mov	x1, #0xff260000            	// #4280680448
  202150:	b9400022 	ldr	w2, [x1]
  202154:	39407fa1 	ldrb	w1, [x29,#31]
  202158:	2a010041 	orr	w1, w2, w1
  20215c:	b9000001 	str	w1, [x0]
  202160:	d2bfe4c0 	mov	x0, #0xff260000            	// #4280680448
  202164:	d2bfe4c1 	mov	x1, #0xff260000            	// #4280680448
  202168:	b9400021 	ldr	w1, [x1]
  20216c:	321d0021 	orr	w1, w1, #0x8
  202170:	b9000001 	str	w1, [x0]
  202174:	d2bfe4c0 	mov	x0, #0xff260000            	// #4280680448
  202178:	d2bfe4c1 	mov	x1, #0xff260000            	// #4280680448
  20217c:	b9400021 	ldr	w1, [x1]
  202180:	321c0021 	orr	w1, w1, #0x10
  202184:	b9000001 	str	w1, [x0]
  202188:	d2bfe4c0 	mov	x0, #0xff260000            	// #4280680448
  20218c:	d2bfe4c1 	mov	x1, #0xff260000            	// #4280680448
  202190:	b9400021 	ldr	w1, [x1]
  202194:	321b0021 	orr	w1, w1, #0x20
  202198:	b9000001 	str	w1, [x0]
  20219c:	d2800100 	mov	x0, #0x8                   	// #8
  2021a0:	f2bfe4c0 	movk	x0, #0xff26, lsl #16
  2021a4:	d2800101 	mov	x1, #0x8                   	// #8
  2021a8:	f2bfe4c1 	movk	x1, #0xff26, lsl #16
  2021ac:	b9400021 	ldr	w1, [x1]
  2021b0:	32100021 	orr	w1, w1, #0x10000
  2021b4:	b9000001 	str	w1, [x0]
  2021b8:	d503201f 	nop
  2021bc:	d2800180 	mov	x0, #0xc                   	// #12
  2021c0:	f2bfe4c0 	movk	x0, #0xff26, lsl #16
  2021c4:	b9400000 	ldr	w0, [x0]
  2021c8:	12100000 	and	w0, w0, #0x10000
  2021cc:	7100001f 	cmp	w0, #0x0
  2021d0:	54ffff60 	b.eq	2021bc <get_tsadc_temp+0xf8>
  2021d4:	d2800180 	mov	x0, #0xc                   	// #12
  2021d8:	f2bfe4c0 	movk	x0, #0xff26, lsl #16
  2021dc:	d2800181 	mov	x1, #0xc                   	// #12
  2021e0:	f2bfe4c1 	movk	x1, #0xff26, lsl #16
  2021e4:	b9400021 	ldr	w1, [x1]
  2021e8:	120f7821 	and	w1, w1, #0xfffeffff
  2021ec:	b9000001 	str	w1, [x0]
  2021f0:	39407fa0 	ldrb	w0, [x29,#31]
  2021f4:	7100001f 	cmp	w0, #0x0
  2021f8:	540001a1 	b.ne	20222c <get_tsadc_temp+0x168>
  2021fc:	d2800400 	mov	x0, #0x20                  	// #32
  202200:	f2bfe4c0 	movk	x0, #0xff26, lsl #16
  202204:	b9400000 	ldr	w0, [x0]
  202208:	1e230000 	ucvtf	s0, w0
  20220c:	1e22c001 	fcvt	d1, s0
  202210:	5c000340 	ldr	d0, 202278 <get_tsadc_temp+0x1b4>
  202214:	1e600821 	fmul	d1, d1, d0
  202218:	5c000340 	ldr	d0, 202280 <get_tsadc_temp+0x1bc>
  20221c:	1e603820 	fsub	d0, d1, d0
  202220:	1e780000 	fcvtzs	w0, d0
  202224:	b9002fa0 	str	w0, [x29,#44]
  202228:	1400000c 	b	202258 <get_tsadc_temp+0x194>
  20222c:	d2800480 	mov	x0, #0x24                  	// #36
  202230:	f2bfe4c0 	movk	x0, #0xff26, lsl #16
  202234:	b9400000 	ldr	w0, [x0]
  202238:	1e230000 	ucvtf	s0, w0
  20223c:	1e22c001 	fcvt	d1, s0
  202240:	5c0001c0 	ldr	d0, 202278 <get_tsadc_temp+0x1b4>
  202244:	1e600821 	fmul	d1, d1, d0
  202248:	5c0001c0 	ldr	d0, 202280 <get_tsadc_temp+0x1bc>
  20224c:	1e603820 	fsub	d0, d1, d0
  202250:	1e780000 	fcvtzs	w0, d0
  202254:	b9002fa0 	str	w0, [x29,#44]
  202258:	90000000 	adrp	x0, 202000 <test_timer_irq+0x64>
  20225c:	9137c000 	add	x0, x0, #0xdf0
  202260:	b9402fa1 	ldr	w1, [x29,#44]
  202264:	97fffe05 	bl	201a78 <my_printf>
  202268:	b9402fa0 	ldr	w0, [x29,#44]
  20226c:	a8c37bfd 	ldp	x29, x30, [sp],#48
  202270:	d65f03c0 	ret
  202274:	d503201f 	nop
  202278:	9c0ebee0 	.word	0x9c0ebee0
  20227c:	3fe2a233 	.word	0x3fe2a233
  202280:	851eb852 	.word	0x851eb852
  202284:	407119eb 	.word	0x407119eb

0000000000202288 <i2c_init>:
  202288:	d2800280 	mov	x0, #0x14                  	// #20
  20228c:	f2bfe640 	movk	x0, #0xff32, lsl #16
  202290:	d2800281 	mov	x1, #0x14                  	// #20
  202294:	f2bfe641 	movk	x1, #0xff32, lsl #16
  202298:	b9400022 	ldr	w2, [x1]
  20229c:	129fd7e1 	mov	w1, #0xffff0140            	// #-65216
  2022a0:	2a010041 	orr	w1, w2, w1
  2022a4:	b9000001 	str	w1, [x0]
  2022a8:	d503201f 	nop
  2022ac:	d65f03c0 	ret

00000000002022b0 <eeprom_write>:
  2022b0:	d10043ff 	sub	sp, sp, #0x10
  2022b4:	39003fe0 	strb	w0, [sp,#15]
  2022b8:	39003be1 	strb	w1, [sp,#14]
  2022bc:	d2bfe7a0 	mov	x0, #0xff3d0000            	// #4282187776
  2022c0:	d2bfe7a1 	mov	x1, #0xff3d0000            	// #4282187776
  2022c4:	b9400021 	ldr	w1, [x1]
  2022c8:	12196021 	and	w1, w1, #0xffffff80
  2022cc:	b9000001 	str	w1, [x0]
  2022d0:	d2bfe7a0 	mov	x0, #0xff3d0000            	// #4282187776
  2022d4:	d2bfe7a1 	mov	x1, #0xff3d0000            	// #4282187776
  2022d8:	b9401c21 	ldr	w1, [x1,#28]
  2022dc:	12196021 	and	w1, w1, #0xffffff80
  2022e0:	b9001c01 	str	w1, [x0,#28]
  2022e4:	d2bfe7a0 	mov	x0, #0xff3d0000            	// #4282187776
  2022e8:	d2bfe7a1 	mov	x1, #0xff3d0000            	// #4282187776
  2022ec:	b9400021 	ldr	w1, [x1]
  2022f0:	32000021 	orr	w1, w1, #0x1
  2022f4:	b9000001 	str	w1, [x0]
  2022f8:	d2bfe7a0 	mov	x0, #0xff3d0000            	// #4282187776
  2022fc:	d2bfe7a1 	mov	x1, #0xff3d0000            	// #4282187776
  202300:	b9400021 	ldr	w1, [x1]
  202304:	121d7421 	and	w1, w1, #0xfffffff9
  202308:	b9000001 	str	w1, [x0]
  20230c:	d2bfe7a0 	mov	x0, #0xff3d0000            	// #4282187776
  202310:	d2bfe7a1 	mov	x1, #0xff3d0000            	// #4282187776
  202314:	b9400021 	ldr	w1, [x1]
  202318:	321d0021 	orr	w1, w1, #0x8
  20231c:	b9000001 	str	w1, [x0]
  202320:	d503201f 	nop
  202324:	d2bfe7a0 	mov	x0, #0xff3d0000            	// #4282187776
  202328:	b9401c00 	ldr	w0, [x0,#28]
  20232c:	121c0000 	and	w0, w0, #0x10
  202330:	7100001f 	cmp	w0, #0x0
  202334:	54ffff80 	b.eq	202324 <eeprom_write+0x74>
  202338:	d2bfe7a0 	mov	x0, #0xff3d0000            	// #4282187776
  20233c:	d2bfe7a1 	mov	x1, #0xff3d0000            	// #4282187776
  202340:	b9401c21 	ldr	w1, [x1,#28]
  202344:	321c0021 	orr	w1, w1, #0x10
  202348:	b9001c01 	str	w1, [x0,#28]
  20234c:	d2bfe7a0 	mov	x0, #0xff3d0000            	// #4282187776
  202350:	39403fe1 	ldrb	w1, [sp,#15]
  202354:	53185c22 	lsl	w2, w1, #8
  202358:	528008c1 	mov	w1, #0x46                  	// #70
  20235c:	2a010042 	orr	w2, w2, w1
  202360:	39403be1 	ldrb	w1, [sp,#14]
  202364:	53103c21 	lsl	w1, w1, #16
  202368:	2a010041 	orr	w1, w2, w1
  20236c:	b9010001 	str	w1, [x0,#256]
  202370:	d2bfe7a0 	mov	x0, #0xff3d0000            	// #4282187776
  202374:	52800061 	mov	w1, #0x3                   	// #3
  202378:	b9001001 	str	w1, [x0,#16]
  20237c:	d503201f 	nop
  202380:	d2bfe7a0 	mov	x0, #0xff3d0000            	// #4282187776
  202384:	b9401c00 	ldr	w0, [x0,#28]
  202388:	121e0000 	and	w0, w0, #0x4
  20238c:	7100001f 	cmp	w0, #0x0
  202390:	54ffff80 	b.eq	202380 <eeprom_write+0xd0>
  202394:	d2bfe7a0 	mov	x0, #0xff3d0000            	// #4282187776
  202398:	d2bfe7a1 	mov	x1, #0xff3d0000            	// #4282187776
  20239c:	b9401c21 	ldr	w1, [x1,#28]
  2023a0:	321e0021 	orr	w1, w1, #0x4
  2023a4:	b9001c01 	str	w1, [x0,#28]
  2023a8:	d2bfe7a0 	mov	x0, #0xff3d0000            	// #4282187776
  2023ac:	d2bfe7a1 	mov	x1, #0xff3d0000            	// #4282187776
  2023b0:	b9400021 	ldr	w1, [x1]
  2023b4:	121c7821 	and	w1, w1, #0xfffffff7
  2023b8:	b9000001 	str	w1, [x0]
  2023bc:	d2bfe7a0 	mov	x0, #0xff3d0000            	// #4282187776
  2023c0:	d2bfe7a1 	mov	x1, #0xff3d0000            	// #4282187776
  2023c4:	b9400021 	ldr	w1, [x1]
  2023c8:	321c0021 	orr	w1, w1, #0x10
  2023cc:	b9000001 	str	w1, [x0]
  2023d0:	d503201f 	nop
  2023d4:	d2bfe7a0 	mov	x0, #0xff3d0000            	// #4282187776
  2023d8:	b9401c00 	ldr	w0, [x0,#28]
  2023dc:	121b0000 	and	w0, w0, #0x20
  2023e0:	7100001f 	cmp	w0, #0x0
  2023e4:	54ffff80 	b.eq	2023d4 <eeprom_write+0x124>
  2023e8:	d2bfe7a0 	mov	x0, #0xff3d0000            	// #4282187776
  2023ec:	d2bfe7a1 	mov	x1, #0xff3d0000            	// #4282187776
  2023f0:	b9401c21 	ldr	w1, [x1,#28]
  2023f4:	321b0021 	orr	w1, w1, #0x20
  2023f8:	b9001c01 	str	w1, [x0,#28]
  2023fc:	d503201f 	nop
  202400:	910043ff 	add	sp, sp, #0x10
  202404:	d65f03c0 	ret

0000000000202408 <eeprom_read>:
  202408:	d10083ff 	sub	sp, sp, #0x20
  20240c:	39003fe0 	strb	w0, [sp,#15]
  202410:	39007fff 	strb	wzr, [sp,#31]
  202414:	d2bfe7a0 	mov	x0, #0xff3d0000            	// #4282187776
  202418:	d2bfe7a1 	mov	x1, #0xff3d0000            	// #4282187776
  20241c:	b9400021 	ldr	w1, [x1]
  202420:	12196021 	and	w1, w1, #0xffffff80
  202424:	b9000001 	str	w1, [x0]
  202428:	d2bfe7a0 	mov	x0, #0xff3d0000            	// #4282187776
  20242c:	d2bfe7a1 	mov	x1, #0xff3d0000            	// #4282187776
  202430:	b9401c21 	ldr	w1, [x1,#28]
  202434:	12196021 	and	w1, w1, #0xffffff80
  202438:	b9001c01 	str	w1, [x0,#28]
  20243c:	d2bfe7a0 	mov	x0, #0xff3d0000            	// #4282187776
  202440:	d2bfe7a1 	mov	x1, #0xff3d0000            	// #4282187776
  202444:	b9400021 	ldr	w1, [x1]
  202448:	32000021 	orr	w1, w1, #0x1
  20244c:	b9000001 	str	w1, [x0]
  202450:	d2bfe7a0 	mov	x0, #0xff3d0000            	// #4282187776
  202454:	d2bfe7a1 	mov	x1, #0xff3d0000            	// #4282187776
  202458:	b9400021 	ldr	w1, [x1]
  20245c:	321f0021 	orr	w1, w1, #0x2
  202460:	b9000001 	str	w1, [x0]
  202464:	d2bfe7a0 	mov	x0, #0xff3d0000            	// #4282187776
  202468:	528008c1 	mov	w1, #0x46                  	// #70
  20246c:	72a02001 	movk	w1, #0x100, lsl #16
  202470:	b9000801 	str	w1, [x0,#8]
  202474:	d2bfe7a0 	mov	x0, #0xff3d0000            	// #4282187776
  202478:	39403fe1 	ldrb	w1, [sp,#15]
  20247c:	32080021 	orr	w1, w1, #0x1000000
  202480:	b9000c01 	str	w1, [x0,#12]
  202484:	d2bfe7a0 	mov	x0, #0xff3d0000            	// #4282187776
  202488:	d2bfe7a1 	mov	x1, #0xff3d0000            	// #4282187776
  20248c:	b9400021 	ldr	w1, [x1]
  202490:	321d0021 	orr	w1, w1, #0x8
  202494:	b9000001 	str	w1, [x0]
  202498:	d503201f 	nop
  20249c:	d2bfe7a0 	mov	x0, #0xff3d0000            	// #4282187776
  2024a0:	b9401c00 	ldr	w0, [x0,#28]
  2024a4:	121c0000 	and	w0, w0, #0x10
  2024a8:	7100001f 	cmp	w0, #0x0
  2024ac:	54ffff80 	b.eq	20249c <eeprom_read+0x94>
  2024b0:	d2bfe7a0 	mov	x0, #0xff3d0000            	// #4282187776
  2024b4:	d2bfe7a1 	mov	x1, #0xff3d0000            	// #4282187776
  2024b8:	b9401c21 	ldr	w1, [x1,#28]
  2024bc:	321c0021 	orr	w1, w1, #0x10
  2024c0:	b9001c01 	str	w1, [x0,#28]
  2024c4:	d2bfe7a0 	mov	x0, #0xff3d0000            	// #4282187776
  2024c8:	d2bfe7a1 	mov	x1, #0xff3d0000            	// #4282187776
  2024cc:	b9400021 	ldr	w1, [x1]
  2024d0:	321b0021 	orr	w1, w1, #0x20
  2024d4:	b9000001 	str	w1, [x0]
  2024d8:	d2bfe7a0 	mov	x0, #0xff3d0000            	// #4282187776
  2024dc:	52800021 	mov	w1, #0x1                   	// #1
  2024e0:	b9001401 	str	w1, [x0,#20]
  2024e4:	d503201f 	nop
  2024e8:	d2bfe7a0 	mov	x0, #0xff3d0000            	// #4282187776
  2024ec:	b9401c00 	ldr	w0, [x0,#28]
  2024f0:	121d0000 	and	w0, w0, #0x8
  2024f4:	7100001f 	cmp	w0, #0x0
  2024f8:	54ffff80 	b.eq	2024e8 <eeprom_read+0xe0>
  2024fc:	d2bfe7a0 	mov	x0, #0xff3d0000            	// #4282187776
  202500:	d2bfe7a1 	mov	x1, #0xff3d0000            	// #4282187776
  202504:	b9401c21 	ldr	w1, [x1,#28]
  202508:	321d0021 	orr	w1, w1, #0x8
  20250c:	b9001c01 	str	w1, [x0,#28]
  202510:	d2bfe7a0 	mov	x0, #0xff3d0000            	// #4282187776
  202514:	d2bfe7a1 	mov	x1, #0xff3d0000            	// #4282187776
  202518:	b9400021 	ldr	w1, [x1]
  20251c:	121c7821 	and	w1, w1, #0xfffffff7
  202520:	b9000001 	str	w1, [x0]
  202524:	d2bfe7a0 	mov	x0, #0xff3d0000            	// #4282187776
  202528:	d2bfe7a1 	mov	x1, #0xff3d0000            	// #4282187776
  20252c:	b9400021 	ldr	w1, [x1]
  202530:	321c0021 	orr	w1, w1, #0x10
  202534:	b9000001 	str	w1, [x0]
  202538:	d503201f 	nop
  20253c:	d2bfe7a0 	mov	x0, #0xff3d0000            	// #4282187776
  202540:	b9401c00 	ldr	w0, [x0,#28]
  202544:	121b0000 	and	w0, w0, #0x20
  202548:	7100001f 	cmp	w0, #0x0
  20254c:	54ffff80 	b.eq	20253c <eeprom_read+0x134>
  202550:	d2bfe7a0 	mov	x0, #0xff3d0000            	// #4282187776
  202554:	d2bfe7a1 	mov	x1, #0xff3d0000            	// #4282187776
  202558:	b9401c21 	ldr	w1, [x1,#28]
  20255c:	321b0021 	orr	w1, w1, #0x20
  202560:	b9001c01 	str	w1, [x0,#28]
  202564:	d2bfe7a0 	mov	x0, #0xff3d0000            	// #4282187776
  202568:	b9420000 	ldr	w0, [x0,#512]
  20256c:	12001c00 	and	w0, w0, #0xff
  202570:	910083ff 	add	sp, sp, #0x20
  202574:	d65f03c0 	ret

0000000000202578 <spi_init>:
  202578:	d2800200 	mov	x0, #0x10                  	// #16
  20257c:	f2bfe640 	movk	x0, #0xff32, lsl #16
  202580:	128fffe1 	mov	w1, #0xffff8000            	// #-32768
  202584:	b9000001 	str	w1, [x0]
  202588:	d2800280 	mov	x0, #0x14                  	// #20
  20258c:	f2bfe640 	movk	x0, #0xff32, lsl #16
  202590:	129ffaa1 	mov	w1, #0xffff002a            	// #-65494
  202594:	b9000001 	str	w1, [x0]
  202598:	d2bfe3a0 	mov	x0, #0xff1d0000            	// #4280090624
  20259c:	d2bfe3a1 	mov	x1, #0xff1d0000            	// #4280090624
  2025a0:	b9400821 	ldr	w1, [x1,#8]
  2025a4:	121f7821 	and	w1, w1, #0xfffffffe
  2025a8:	b9000801 	str	w1, [x0,#8]
  2025ac:	d2bfe3a0 	mov	x0, #0xff1d0000            	// #4280090624
  2025b0:	52800301 	mov	w1, #0x18                  	// #24
  2025b4:	b9001001 	str	w1, [x0,#16]
  2025b8:	d2bfe3a0 	mov	x0, #0xff1d0000            	// #4280090624
  2025bc:	d2bfe3a1 	mov	x1, #0xff1d0000            	// #4280090624
  2025c0:	b9400021 	ldr	w1, [x1]
  2025c4:	121e7421 	and	w1, w1, #0xfffffffc
  2025c8:	b9000001 	str	w1, [x0]
  2025cc:	d2bfe3a0 	mov	x0, #0xff1d0000            	// #4280090624
  2025d0:	d2bfe3a1 	mov	x1, #0xff1d0000            	// #4280090624
  2025d4:	b9400022 	ldr	w2, [x1]
  2025d8:	52841ba1 	mov	w1, #0x20dd                	// #8413
  2025dc:	2a010041 	orr	w1, w2, w1
  2025e0:	b9000001 	str	w1, [x0]
  2025e4:	d503201f 	nop
  2025e8:	d65f03c0 	ret

00000000002025ec <spi_send_byte>:
  2025ec:	d10043ff 	sub	sp, sp, #0x10
  2025f0:	39003fe0 	strb	w0, [sp,#15]
  2025f4:	d2bfe3a0 	mov	x0, #0xff1d0000            	// #4280090624
  2025f8:	d2bfe3a1 	mov	x1, #0xff1d0000            	// #4280090624
  2025fc:	b9400821 	ldr	w1, [x1,#8]
  202600:	32000021 	orr	w1, w1, #0x1
  202604:	b9000801 	str	w1, [x0,#8]
  202608:	d2bfe3a0 	mov	x0, #0xff1d0000            	// #4280090624
  20260c:	39403fe1 	ldrb	w1, [sp,#15]
  202610:	b9040001 	str	w1, [x0,#1024]
  202614:	d503201f 	nop
  202618:	d2bfe3a0 	mov	x0, #0xff1d0000            	// #4280090624
  20261c:	b9402400 	ldr	w0, [x0,#36]
  202620:	121e0000 	and	w0, w0, #0x4
  202624:	7100001f 	cmp	w0, #0x0
  202628:	54ffff80 	b.eq	202618 <spi_send_byte+0x2c>
  20262c:	d503201f 	nop
  202630:	d2bfe3a0 	mov	x0, #0xff1d0000            	// #4280090624
  202634:	b9402400 	ldr	w0, [x0,#36]
  202638:	12000000 	and	w0, w0, #0x1
  20263c:	7100001f 	cmp	w0, #0x0
  202640:	54ffff81 	b.ne	202630 <spi_send_byte+0x44>
  202644:	d2bfe3a0 	mov	x0, #0xff1d0000            	// #4280090624
  202648:	d2bfe3a1 	mov	x1, #0xff1d0000            	// #4280090624
  20264c:	b9400821 	ldr	w1, [x1,#8]
  202650:	121f7821 	and	w1, w1, #0xfffffffe
  202654:	b9000801 	str	w1, [x0,#8]
  202658:	d503201f 	nop
  20265c:	910043ff 	add	sp, sp, #0x10
  202660:	d65f03c0 	ret

0000000000202664 <spi_recv_byte>:
  202664:	d10043ff 	sub	sp, sp, #0x10
  202668:	39003fff 	strb	wzr, [sp,#15]
  20266c:	d2bfe3a0 	mov	x0, #0xff1d0000            	// #4280090624
  202670:	d2bfe3a1 	mov	x1, #0xff1d0000            	// #4280090624
  202674:	b9400821 	ldr	w1, [x1,#8]
  202678:	32000021 	orr	w1, w1, #0x1
  20267c:	b9000801 	str	w1, [x0,#8]
  202680:	d2bfe3a0 	mov	x0, #0xff1d0000            	// #4280090624
  202684:	b904001f 	str	wzr, [x0,#1024]
  202688:	d503201f 	nop
  20268c:	d2bfe3a0 	mov	x0, #0xff1d0000            	// #4280090624
  202690:	b9402400 	ldr	w0, [x0,#36]
  202694:	121d0000 	and	w0, w0, #0x8
  202698:	7100001f 	cmp	w0, #0x0
  20269c:	54ffff81 	b.ne	20268c <spi_recv_byte+0x28>
  2026a0:	d503201f 	nop
  2026a4:	d2bfe3a0 	mov	x0, #0xff1d0000            	// #4280090624
  2026a8:	b9402400 	ldr	w0, [x0,#36]
  2026ac:	12000000 	and	w0, w0, #0x1
  2026b0:	7100001f 	cmp	w0, #0x0
  2026b4:	54ffff81 	b.ne	2026a4 <spi_recv_byte+0x40>
  2026b8:	d2bfe3a0 	mov	x0, #0xff1d0000            	// #4280090624
  2026bc:	b9480000 	ldr	w0, [x0,#2048]
  2026c0:	39003fe0 	strb	w0, [sp,#15]
  2026c4:	d2bfe3a0 	mov	x0, #0xff1d0000            	// #4280090624
  2026c8:	d2bfe3a1 	mov	x1, #0xff1d0000            	// #4280090624
  2026cc:	b9400821 	ldr	w1, [x1,#8]
  2026d0:	121f7821 	and	w1, w1, #0xfffffffe
  2026d4:	b9000801 	str	w1, [x0,#8]
  2026d8:	39403fe0 	ldrb	w0, [sp,#15]
  2026dc:	910043ff 	add	sp, sp, #0x10
  2026e0:	d65f03c0 	ret

00000000002026e4 <spi_flash_set_cs>:
  2026e4:	d10043ff 	sub	sp, sp, #0x10
  2026e8:	39003fe0 	strb	w0, [sp,#15]
  2026ec:	39403fe0 	ldrb	w0, [sp,#15]
  2026f0:	7100001f 	cmp	w0, #0x0
  2026f4:	540000e1 	b.ne	202710 <spi_flash_set_cs+0x2c>
  2026f8:	d2bfe3a0 	mov	x0, #0xff1d0000            	// #4280090624
  2026fc:	d2bfe3a1 	mov	x1, #0xff1d0000            	// #4280090624
  202700:	b9400c21 	ldr	w1, [x1,#12]
  202704:	32000021 	orr	w1, w1, #0x1
  202708:	b9000c01 	str	w1, [x0,#12]
  20270c:	14000006 	b	202724 <spi_flash_set_cs+0x40>
  202710:	d2bfe3a0 	mov	x0, #0xff1d0000            	// #4280090624
  202714:	d2bfe3a1 	mov	x1, #0xff1d0000            	// #4280090624
  202718:	b9400c21 	ldr	w1, [x1,#12]
  20271c:	121f7821 	and	w1, w1, #0xfffffffe
  202720:	b9000c01 	str	w1, [x0,#12]
  202724:	d503201f 	nop
  202728:	910043ff 	add	sp, sp, #0x10
  20272c:	d65f03c0 	ret

0000000000202730 <spi_flash_send_addr>:
  202730:	a9be7bfd 	stp	x29, x30, [sp,#-32]!
  202734:	910003fd 	mov	x29, sp
  202738:	b9001fa0 	str	w0, [x29,#28]
  20273c:	b9401fa0 	ldr	w0, [x29,#28]
  202740:	53107c00 	lsr	w0, w0, #16
  202744:	12001c00 	and	w0, w0, #0xff
  202748:	97ffffa9 	bl	2025ec <spi_send_byte>
  20274c:	b9401fa0 	ldr	w0, [x29,#28]
  202750:	53087c00 	lsr	w0, w0, #8
  202754:	12001c00 	and	w0, w0, #0xff
  202758:	97ffffa5 	bl	2025ec <spi_send_byte>
  20275c:	b9401fa0 	ldr	w0, [x29,#28]
  202760:	12001c00 	and	w0, w0, #0xff
  202764:	97ffffa2 	bl	2025ec <spi_send_byte>
  202768:	d503201f 	nop
  20276c:	a8c27bfd 	ldp	x29, x30, [sp],#32
  202770:	d65f03c0 	ret

0000000000202774 <spi_flash_write_enable>:
  202774:	a9be7bfd 	stp	x29, x30, [sp,#-32]!
  202778:	910003fd 	mov	x29, sp
  20277c:	b9001fa0 	str	w0, [x29,#28]
  202780:	b9401fa0 	ldr	w0, [x29,#28]
  202784:	7100001f 	cmp	w0, #0x0
  202788:	54000100 	b.eq	2027a8 <spi_flash_write_enable+0x34>
  20278c:	52800000 	mov	w0, #0x0                   	// #0
  202790:	97ffffd5 	bl	2026e4 <spi_flash_set_cs>
  202794:	528000c0 	mov	w0, #0x6                   	// #6
  202798:	97ffff95 	bl	2025ec <spi_send_byte>
  20279c:	52800020 	mov	w0, #0x1                   	// #1
  2027a0:	97ffffd1 	bl	2026e4 <spi_flash_set_cs>
  2027a4:	14000007 	b	2027c0 <spi_flash_write_enable+0x4c>
  2027a8:	52800000 	mov	w0, #0x0                   	// #0
  2027ac:	97ffffce 	bl	2026e4 <spi_flash_set_cs>
  2027b0:	52800080 	mov	w0, #0x4                   	// #4
  2027b4:	97ffff8e 	bl	2025ec <spi_send_byte>
  2027b8:	52800020 	mov	w0, #0x1                   	// #1
  2027bc:	97ffffca 	bl	2026e4 <spi_flash_set_cs>
  2027c0:	d503201f 	nop
  2027c4:	a8c27bfd 	ldp	x29, x30, [sp],#32
  2027c8:	d65f03c0 	ret

00000000002027cc <spi_flash_read_status_reg1>:
  2027cc:	a9be7bfd 	stp	x29, x30, [sp,#-32]!
  2027d0:	910003fd 	mov	x29, sp
  2027d4:	52800000 	mov	w0, #0x0                   	// #0
  2027d8:	97ffffc3 	bl	2026e4 <spi_flash_set_cs>
  2027dc:	528000a0 	mov	w0, #0x5                   	// #5
  2027e0:	97ffff83 	bl	2025ec <spi_send_byte>
  2027e4:	97ffffa0 	bl	202664 <spi_recv_byte>
  2027e8:	39007fa0 	strb	w0, [x29,#31]
  2027ec:	52800020 	mov	w0, #0x1                   	// #1
  2027f0:	97ffffbd 	bl	2026e4 <spi_flash_set_cs>
  2027f4:	39407fa0 	ldrb	w0, [x29,#31]
  2027f8:	a8c27bfd 	ldp	x29, x30, [sp],#32
  2027fc:	d65f03c0 	ret

0000000000202800 <spi_flash_read_status_reg2>:
  202800:	a9be7bfd 	stp	x29, x30, [sp,#-32]!
  202804:	910003fd 	mov	x29, sp
  202808:	52800000 	mov	w0, #0x0                   	// #0
  20280c:	97ffffb6 	bl	2026e4 <spi_flash_set_cs>
  202810:	528006a0 	mov	w0, #0x35                  	// #53
  202814:	97ffff76 	bl	2025ec <spi_send_byte>
  202818:	97ffff93 	bl	202664 <spi_recv_byte>
  20281c:	39007fa0 	strb	w0, [x29,#31]
  202820:	52800020 	mov	w0, #0x1                   	// #1
  202824:	97ffffb0 	bl	2026e4 <spi_flash_set_cs>
  202828:	39407fa0 	ldrb	w0, [x29,#31]
  20282c:	a8c27bfd 	ldp	x29, x30, [sp],#32
  202830:	d65f03c0 	ret

0000000000202834 <spi_flash_wait_when_busy>:
  202834:	a9bf7bfd 	stp	x29, x30, [sp,#-16]!
  202838:	910003fd 	mov	x29, sp
  20283c:	d503201f 	nop
  202840:	97ffffe3 	bl	2027cc <spi_flash_read_status_reg1>
  202844:	12001c00 	and	w0, w0, #0xff
  202848:	12000000 	and	w0, w0, #0x1
  20284c:	7100001f 	cmp	w0, #0x0
  202850:	54ffff81 	b.ne	202840 <spi_flash_wait_when_busy+0xc>
  202854:	d503201f 	nop
  202858:	a8c17bfd 	ldp	x29, x30, [sp],#16
  20285c:	d65f03c0 	ret

0000000000202860 <spi_flash_write_status_reg>:
  202860:	a9be7bfd 	stp	x29, x30, [sp,#-32]!
  202864:	910003fd 	mov	x29, sp
  202868:	39007fa0 	strb	w0, [x29,#31]
  20286c:	39007ba1 	strb	w1, [x29,#30]
  202870:	52800020 	mov	w0, #0x1                   	// #1
  202874:	97ffffc0 	bl	202774 <spi_flash_write_enable>
  202878:	52800000 	mov	w0, #0x0                   	// #0
  20287c:	97ffff9a 	bl	2026e4 <spi_flash_set_cs>
  202880:	52800020 	mov	w0, #0x1                   	// #1
  202884:	97ffff5a 	bl	2025ec <spi_send_byte>
  202888:	39407fa0 	ldrb	w0, [x29,#31]
  20288c:	97ffff58 	bl	2025ec <spi_send_byte>
  202890:	39407ba0 	ldrb	w0, [x29,#30]
  202894:	97ffff56 	bl	2025ec <spi_send_byte>
  202898:	52800020 	mov	w0, #0x1                   	// #1
  20289c:	97ffff92 	bl	2026e4 <spi_flash_set_cs>
  2028a0:	97ffffe5 	bl	202834 <spi_flash_wait_when_busy>
  2028a4:	d503201f 	nop
  2028a8:	a8c27bfd 	ldp	x29, x30, [sp],#32
  2028ac:	d65f03c0 	ret

00000000002028b0 <spi_flash_clear_protect_for_status_reg>:
  2028b0:	a9be7bfd 	stp	x29, x30, [sp,#-32]!
  2028b4:	910003fd 	mov	x29, sp
  2028b8:	97ffffc5 	bl	2027cc <spi_flash_read_status_reg1>
  2028bc:	39007fa0 	strb	w0, [x29,#31]
  2028c0:	97ffffd0 	bl	202800 <spi_flash_read_status_reg2>
  2028c4:	39007ba0 	strb	w0, [x29,#30]
  2028c8:	39407fa0 	ldrb	w0, [x29,#31]
  2028cc:	12001800 	and	w0, w0, #0x7f
  2028d0:	39007fa0 	strb	w0, [x29,#31]
  2028d4:	39407ba0 	ldrb	w0, [x29,#30]
  2028d8:	121f7800 	and	w0, w0, #0xfffffffe
  2028dc:	39007ba0 	strb	w0, [x29,#30]
  2028e0:	39407ba1 	ldrb	w1, [x29,#30]
  2028e4:	39407fa0 	ldrb	w0, [x29,#31]
  2028e8:	97ffffde 	bl	202860 <spi_flash_write_status_reg>
  2028ec:	d503201f 	nop
  2028f0:	a8c27bfd 	ldp	x29, x30, [sp],#32
  2028f4:	d65f03c0 	ret

00000000002028f8 <spi_flash_clear_protect_for_data>:
  2028f8:	a9be7bfd 	stp	x29, x30, [sp,#-32]!
  2028fc:	910003fd 	mov	x29, sp
  202900:	97ffffb3 	bl	2027cc <spi_flash_read_status_reg1>
  202904:	39007fa0 	strb	w0, [x29,#31]
  202908:	97ffffbe 	bl	202800 <spi_flash_read_status_reg2>
  20290c:	39007ba0 	strb	w0, [x29,#30]
  202910:	39407fa0 	ldrb	w0, [x29,#31]
  202914:	121b7000 	and	w0, w0, #0xffffffe3
  202918:	39007fa0 	strb	w0, [x29,#31]
  20291c:	39407ba0 	ldrb	w0, [x29,#30]
  202920:	12197800 	and	w0, w0, #0xffffffbf
  202924:	39007ba0 	strb	w0, [x29,#30]
  202928:	39407ba1 	ldrb	w1, [x29,#30]
  20292c:	39407fa0 	ldrb	w0, [x29,#31]
  202930:	97ffffcc 	bl	202860 <spi_flash_write_status_reg>
  202934:	d503201f 	nop
  202938:	a8c27bfd 	ldp	x29, x30, [sp],#32
  20293c:	d65f03c0 	ret

0000000000202940 <spi_flash_erase_sector>:
  202940:	a9be7bfd 	stp	x29, x30, [sp,#-32]!
  202944:	910003fd 	mov	x29, sp
  202948:	b9001fa0 	str	w0, [x29,#28]
  20294c:	52800020 	mov	w0, #0x1                   	// #1
  202950:	97ffff89 	bl	202774 <spi_flash_write_enable>
  202954:	52800000 	mov	w0, #0x0                   	// #0
  202958:	97ffff63 	bl	2026e4 <spi_flash_set_cs>
  20295c:	52800400 	mov	w0, #0x20                  	// #32
  202960:	97ffff23 	bl	2025ec <spi_send_byte>
  202964:	b9401fa0 	ldr	w0, [x29,#28]
  202968:	97ffff72 	bl	202730 <spi_flash_send_addr>
  20296c:	52800020 	mov	w0, #0x1                   	// #1
  202970:	97ffff5d 	bl	2026e4 <spi_flash_set_cs>
  202974:	97ffffb0 	bl	202834 <spi_flash_wait_when_busy>
  202978:	d503201f 	nop
  20297c:	a8c27bfd 	ldp	x29, x30, [sp],#32
  202980:	d65f03c0 	ret

0000000000202984 <spi_flash_program>:
  202984:	a9bd7bfd 	stp	x29, x30, [sp,#-48]!
  202988:	910003fd 	mov	x29, sp
  20298c:	b9001fa0 	str	w0, [x29,#28]
  202990:	f9000ba1 	str	x1, [x29,#16]
  202994:	b9001ba2 	str	w2, [x29,#24]
  202998:	52800020 	mov	w0, #0x1                   	// #1
  20299c:	97ffff76 	bl	202774 <spi_flash_write_enable>
  2029a0:	52800000 	mov	w0, #0x0                   	// #0
  2029a4:	97ffff50 	bl	2026e4 <spi_flash_set_cs>
  2029a8:	52800040 	mov	w0, #0x2                   	// #2
  2029ac:	97ffff10 	bl	2025ec <spi_send_byte>
  2029b0:	b9401fa0 	ldr	w0, [x29,#28]
  2029b4:	97ffff5f 	bl	202730 <spi_flash_send_addr>
  2029b8:	b9002fbf 	str	wzr, [x29,#44]
  2029bc:	14000009 	b	2029e0 <spi_flash_program+0x5c>
  2029c0:	b9802fa0 	ldrsw	x0, [x29,#44]
  2029c4:	f9400ba1 	ldr	x1, [x29,#16]
  2029c8:	8b000020 	add	x0, x1, x0
  2029cc:	39400000 	ldrb	w0, [x0]
  2029d0:	97ffff07 	bl	2025ec <spi_send_byte>
  2029d4:	b9402fa0 	ldr	w0, [x29,#44]
  2029d8:	11000400 	add	w0, w0, #0x1
  2029dc:	b9002fa0 	str	w0, [x29,#44]
  2029e0:	b9402fa1 	ldr	w1, [x29,#44]
  2029e4:	b9401ba0 	ldr	w0, [x29,#24]
  2029e8:	6b00003f 	cmp	w1, w0
  2029ec:	54fffeab 	b.lt	2029c0 <spi_flash_program+0x3c>
  2029f0:	52800020 	mov	w0, #0x1                   	// #1
  2029f4:	97ffff3c 	bl	2026e4 <spi_flash_set_cs>
  2029f8:	97ffff8f 	bl	202834 <spi_flash_wait_when_busy>
  2029fc:	d503201f 	nop
  202a00:	a8c37bfd 	ldp	x29, x30, [sp],#48
  202a04:	d65f03c0 	ret

0000000000202a08 <spi_flash_read>:
  202a08:	a9bc7bfd 	stp	x29, x30, [sp,#-64]!
  202a0c:	910003fd 	mov	x29, sp
  202a10:	f9000bf3 	str	x19, [sp,#16]
  202a14:	b9002fa0 	str	w0, [x29,#44]
  202a18:	f90013a1 	str	x1, [x29,#32]
  202a1c:	b9002ba2 	str	w2, [x29,#40]
  202a20:	52800000 	mov	w0, #0x0                   	// #0
  202a24:	97ffff30 	bl	2026e4 <spi_flash_set_cs>
  202a28:	52800060 	mov	w0, #0x3                   	// #3
  202a2c:	97fffef0 	bl	2025ec <spi_send_byte>
  202a30:	b9402fa0 	ldr	w0, [x29,#44]
  202a34:	97ffff3f 	bl	202730 <spi_flash_send_addr>
  202a38:	b9003fbf 	str	wzr, [x29,#60]
  202a3c:	1400000a 	b	202a64 <spi_flash_read+0x5c>
  202a40:	b9803fa0 	ldrsw	x0, [x29,#60]
  202a44:	f94013a1 	ldr	x1, [x29,#32]
  202a48:	8b000033 	add	x19, x1, x0
  202a4c:	97ffff06 	bl	202664 <spi_recv_byte>
  202a50:	12001c00 	and	w0, w0, #0xff
  202a54:	39000260 	strb	w0, [x19]
  202a58:	b9403fa0 	ldr	w0, [x29,#60]
  202a5c:	11000400 	add	w0, w0, #0x1
  202a60:	b9003fa0 	str	w0, [x29,#60]
  202a64:	b9403fa1 	ldr	w1, [x29,#60]
  202a68:	b9402ba0 	ldr	w0, [x29,#40]
  202a6c:	6b00003f 	cmp	w1, w0
  202a70:	54fffe8b 	b.lt	202a40 <spi_flash_read+0x38>
  202a74:	52800020 	mov	w0, #0x1                   	// #1
  202a78:	97ffff1b 	bl	2026e4 <spi_flash_set_cs>
  202a7c:	d503201f 	nop
  202a80:	f9400bf3 	ldr	x19, [sp,#16]
  202a84:	a8c47bfd 	ldp	x29, x30, [sp],#64
  202a88:	d65f03c0 	ret

0000000000202a8c <spi_flash_init>:
  202a8c:	a9bf7bfd 	stp	x29, x30, [sp,#-16]!
  202a90:	910003fd 	mov	x29, sp
  202a94:	97ffff87 	bl	2028b0 <spi_flash_clear_protect_for_status_reg>
  202a98:	97ffff98 	bl	2028f8 <spi_flash_clear_protect_for_data>
  202a9c:	d503201f 	nop
  202aa0:	a8c17bfd 	ldp	x29, x30, [sp],#16
  202aa4:	d65f03c0 	ret

0000000000202aa8 <spi_flash_read_ID>:
  202aa8:	a9be7bfd 	stp	x29, x30, [sp,#-32]!
  202aac:	910003fd 	mov	x29, sp
  202ab0:	f9000fa0 	str	x0, [x29,#24]
  202ab4:	f9000ba1 	str	x1, [x29,#16]
  202ab8:	52800000 	mov	w0, #0x0                   	// #0
  202abc:	97ffff0a 	bl	2026e4 <spi_flash_set_cs>
  202ac0:	12800de0 	mov	w0, #0xffffff90            	// #-112
  202ac4:	97fffeca 	bl	2025ec <spi_send_byte>
  202ac8:	52800000 	mov	w0, #0x0                   	// #0
  202acc:	97ffff19 	bl	202730 <spi_flash_send_addr>
  202ad0:	97fffee5 	bl	202664 <spi_recv_byte>
  202ad4:	12001c00 	and	w0, w0, #0xff
  202ad8:	2a0003e1 	mov	w1, w0
  202adc:	f9400fa0 	ldr	x0, [x29,#24]
  202ae0:	b9000001 	str	w1, [x0]
  202ae4:	97fffee0 	bl	202664 <spi_recv_byte>
  202ae8:	12001c00 	and	w0, w0, #0xff
  202aec:	2a0003e1 	mov	w1, w0
  202af0:	f9400ba0 	ldr	x0, [x29,#16]
  202af4:	b9000001 	str	w1, [x0]
  202af8:	52800020 	mov	w0, #0x1                   	// #1
  202afc:	97fffefa 	bl	2026e4 <spi_flash_set_cs>
  202b00:	d503201f 	nop
  202b04:	a8c27bfd 	ldp	x29, x30, [sp],#32
  202b08:	d65f03c0 	ret
