
u_boot_elf：     文件格式 elf64-littleaarch64


Disassembly of section .text:

0000000000200000 <__image_copy_start>:
  200000:	1400000a 	b	200028 <reset>
  200004:	d503201f 	nop

0000000000200008 <_TEXT_BASE>:
  200008:	00200000 	.word	0x00200000
  20000c:	00000000 	.word	0x00000000

0000000000200010 <_end_ofs>:
  200010:	00001c28 	.word	0x00001c28
  200014:	00000000 	.word	0x00000000

0000000000200018 <_bss_start_ofs>:
  200018:	00001c28 	.word	0x00001c28
  20001c:	00000000 	.word	0x00000000

0000000000200020 <_bss_end_ofs>:
  200020:	00001c50 	.word	0x00001c50
  200024:	00000000 	.word	0x00000000

0000000000200028 <reset>:
  200028:	1400004e 	b	200160 <save_boot_params>

000000000020002c <save_boot_params_ret>:
  20002c:	10003ea0 	adr	x0, 200800 <vectors>
  200030:	d5384241 	mrs	x1, currentel
  200034:	f100303f 	cmp	x1, #0xc
  200038:	540000a0 	b.eq	20004c <save_boot_params_ret+0x20>
  20003c:	f100203f 	cmp	x1, #0x8
  200040:	54000160 	b.eq	20006c <save_boot_params_ret+0x40>
  200044:	f100103f 	cmp	x1, #0x4
  200048:	540001a0 	b.eq	20007c <save_boot_params_ret+0x50>
  20004c:	d51ec000 	msr	vbar_el3, x0
  200050:	d53e1100 	mrs	x0, scr_el3
  200054:	b2400c00 	orr	x0, x0, #0xf
  200058:	d51e1100 	msr	scr_el3, x0
  20005c:	d51e115f 	msr	cptr_el3, xzr
  200060:	58006e40 	ldr	x0, 200e28 <hang+0x8>
  200064:	d51be000 	msr	cntfrq_el0, x0
  200068:	14000008 	b	200088 <save_boot_params_ret+0x5c>
  20006c:	d51cc000 	msr	vbar_el2, x0
  200070:	d2867fe0 	mov	x0, #0x33ff                	// #13311
  200074:	d51c1140 	msr	cptr_el2, x0
  200078:	14000004 	b	200088 <save_boot_params_ret+0x5c>
  20007c:	d518c000 	msr	vbar_el1, x0
  200080:	d2a00600 	mov	x0, #0x300000              	// #3145728
  200084:	d5181040 	msr	cpacr_el1, x0
  200088:	d5384241 	mrs	x1, currentel
  20008c:	f100303f 	cmp	x1, #0xc
  200090:	540000a0 	b.eq	2000a4 <save_boot_params_ret+0x78>
  200094:	f100203f 	cmp	x1, #0x8
  200098:	540000c0 	b.eq	2000b0 <save_boot_params_ret+0x84>
  20009c:	f100103f 	cmp	x1, #0x4
  2000a0:	54000080 	b.eq	2000b0 <save_boot_params_ret+0x84>
  2000a4:	d539f220 	mrs	x0, s3_1_c15_c2_1
  2000a8:	b27a0000 	orr	x0, x0, #0x40
  2000ac:	d519f220 	msr	s3_1_c15_c2_1, x0
  2000b0:	94000003 	bl	2000bc <apply_core_errata>
  2000b4:	9400000b 	bl	2000e0 <lowlevel_init>

00000000002000b8 <master_cpu>:
  2000b8:	9400030c 	bl	200ce8 <_main>

00000000002000bc <apply_core_errata>:
  2000bc:	aa1e03fd 	mov	x29, x30
  2000c0:	d5380000 	mrs	x0, midr_el1
  2000c4:	d344fc00 	lsr	x0, x0, #4
  2000c8:	92402c00 	and	x0, x0, #0xfff
  2000cc:	f1341c1f 	cmp	x0, #0xd07
  2000d0:	54000060 	b.eq	2000dc <apply_a57_core_errata>
  2000d4:	aa1d03fe 	mov	x30, x29
  2000d8:	d65f03c0 	ret

00000000002000dc <apply_a57_core_errata>:
  2000dc:	17fffffe 	b	2000d4 <apply_core_errata+0x18>

00000000002000e0 <lowlevel_init>:
  2000e0:	aa1e03fd 	mov	x29, x30
  2000e4:	58006a60 	ldr	x0, 200e30 <hang+0x10>
  2000e8:	9400001f 	bl	200164 <gic_init_secure>
  2000ec:	58006a60 	ldr	x0, 200e38 <hang+0x18>
  2000f0:	9400002a 	bl	200198 <gic_init_secure_percpu>
  2000f4:	d5384240 	mrs	x0, currentel
  2000f8:	f100201f 	cmp	x0, #0x8
  2000fc:	540000a1 	b.ne	200110 <end>
  200100:	d53c1109 	mrs	x9, hcr_el2
  200104:	b27d0929 	orr	x9, x9, #0x38
  200108:	b2650129 	orr	x9, x9, #0x8000000
  20010c:	d51c1109 	msr	hcr_el2, x9

0000000000200110 <end>:
  200110:	d503201f 	nop
  200114:	aa1d03fe 	mov	x30, x29
  200118:	d65f03c0 	ret

000000000020011c <smp_kick_all_cpus>:
  20011c:	580068a0 	ldr	x0, 200e30 <hang+0x10>
  200120:	14000056 	b	200278 <gic_kick_secondary_cpus>
  200124:	d65f03c0 	ret

0000000000200128 <c_runtime_cpu_setup>:
  200128:	100036c0 	adr	x0, 200800 <vectors>
  20012c:	d5384241 	mrs	x1, currentel
  200130:	f100303f 	cmp	x1, #0xc
  200134:	540000a0 	b.eq	200148 <c_runtime_cpu_setup+0x20>
  200138:	f100203f 	cmp	x1, #0x8
  20013c:	540000a0 	b.eq	200150 <c_runtime_cpu_setup+0x28>
  200140:	f100103f 	cmp	x1, #0x4
  200144:	540000a0 	b.eq	200158 <c_runtime_cpu_setup+0x30>
  200148:	d51ec000 	msr	vbar_el3, x0
  20014c:	14000004 	b	20015c <c_runtime_cpu_setup+0x34>
  200150:	d51cc000 	msr	vbar_el2, x0
  200154:	14000002 	b	20015c <c_runtime_cpu_setup+0x34>
  200158:	d518c000 	msr	vbar_el1, x0
  20015c:	d65f03c0 	ret

0000000000200160 <save_boot_params>:
  200160:	17ffffb3 	b	20002c <save_boot_params_ret>

0000000000200164 <gic_init_secure>:
  200164:	528006e9 	mov	w9, #0x37                  	// #55
  200168:	b9000009 	str	w9, [x0]
  20016c:	b9400409 	ldr	w9, [x0,#4]
  200170:	1200112a 	and	w10, w9, #0x1f
  200174:	3400010a 	cbz	w10, 200194 <gic_init_secure+0x30>
  200178:	9102100b 	add	x11, x0, #0x84
  20017c:	9134100c 	add	x12, x0, #0xd04
  200180:	12800009 	mov	w9, #0xffffffff            	// #-1
  200184:	b8004569 	str	w9, [x11],#4
  200188:	b800459f 	str	wzr, [x12],#4
  20018c:	5100054a 	sub	w10, w10, #0x1
  200190:	35ffffaa 	cbnz	w10, 200184 <gic_init_secure+0x20>
  200194:	d65f03c0 	ret

0000000000200198 <gic_init_secure_percpu>:
  200198:	d53800aa 	mrs	x10, mpidr_el1
  20019c:	d360fd49 	lsr	x9, x10, #32
  2001a0:	b3681d2a 	bfi	x10, x9, #24, #8
  2001a4:	aa0003e9 	mov	x9, x0
  2001a8:	f940052b 	ldr	x11, [x9,#8]
  2001ac:	d360fd6b 	lsr	x11, x11, #32
  2001b0:	6b0b015f 	cmp	w10, w11
  2001b4:	54000060 	b.eq	2001c0 <gic_init_secure_percpu+0x28>
  2001b8:	91408129 	add	x9, x9, #0x20, lsl #12
  2001bc:	17fffffb 	b	2001a8 <gic_init_secure_percpu+0x10>
  2001c0:	1280004a 	mov	w10, #0xfffffffd            	// #-3
  2001c4:	b940152b 	ldr	w11, [x9,#20]
  2001c8:	0a0a016b 	and	w11, w11, w10
  2001cc:	b900152b 	str	w11, [x9,#20]
  2001d0:	d5033e9f 	dsb	st
  2001d4:	d5033fdf 	isb
  2001d8:	b940152a 	ldr	w10, [x9,#20]
  2001dc:	3717ffea 	tbnz	w10, #2, 2001d8 <gic_init_secure_percpu+0x40>
  2001e0:	9140412a 	add	x10, x9, #0x10, lsl #12
  2001e4:	1280000b 	mov	w11, #0xffffffff            	// #-1
  2001e8:	b900814b 	str	w11, [x10,#128]
  2001ec:	b90d015f 	str	wzr, [x10,#3328]
  2001f0:	5280002b 	mov	w11, #0x1                   	// #1
  2001f4:	b901014b 	str	w11, [x10,#256]
  2001f8:	d5384240 	mrs	x0, currentel
  2001fc:	f100301f 	cmp	x0, #0xc
  200200:	540000a0 	b.eq	200214 <el3_sre>
  200204:	f100201f 	cmp	x0, #0x8
  200208:	540000e0 	b.eq	200224 <el2_sre>
  20020c:	f100101f 	cmp	x0, #0x4
  200210:	54000120 	b.eq	200234 <el1_sre>

0000000000200214 <el3_sre>:
  200214:	d53eccaa 	mrs	x10, s3_6_c12_c12_5
  200218:	b2400d4a 	orr	x10, x10, #0xf
  20021c:	d51eccaa 	msr	s3_6_c12_c12_5, x10
  200220:	d5033fdf 	isb

0000000000200224 <el2_sre>:
  200224:	d53cc9aa 	mrs	x10, s3_4_c12_c9_5
  200228:	b2400d4a 	orr	x10, x10, #0xf
  20022c:	d51cc9aa 	msr	s3_4_c12_c9_5, x10
  200230:	d5033fdf 	isb

0000000000200234 <el1_sre>:
  200234:	d5384240 	mrs	x0, currentel
  200238:	f100301f 	cmp	x0, #0xc
  20023c:	540000c1 	b.ne	200254 <el1_ctlr>

0000000000200240 <el3_ctlr>:
  200240:	d280006a 	mov	x10, #0x3                   	// #3
  200244:	d51eccea 	msr	s3_6_c12_c12_7, x10
  200248:	d5033fdf 	isb
  20024c:	d51ecc9f 	msr	s3_6_c12_c12_4, xzr
  200250:	d5033fdf 	isb

0000000000200254 <el1_ctlr>:
  200254:	d280006a 	mov	x10, #0x3                   	// #3
  200258:	d518ccea 	msr	s3_0_c12_c12_7, x10
  20025c:	d5033fdf 	isb
  200260:	d518cc9f 	msr	s3_0_c12_c12_4, xzr
  200264:	d5033fdf 	isb
  200268:	d2801e0a 	mov	x10, #0xf0                  	// #240
  20026c:	d518460a 	msr	s3_0_c4_c6_0, x10
  200270:	d5033fdf 	isb
  200274:	d65f03c0 	ret

0000000000200278 <gic_kick_secondary_cpus>:
  200278:	d2c02009 	mov	x9, #0x10000000000         	// #1099511627776
  20027c:	d518cbc9 	msr	s3_0_c12_c11_6, x9
  200280:	d5033fdf 	isb
  200284:	d65f03c0 	ret
  200288:	d503201f 	nop
  20028c:	d503201f 	nop
  200290:	d503201f 	nop
  200294:	d503201f 	nop
  200298:	d503201f 	nop
  20029c:	d503201f 	nop
  2002a0:	d503201f 	nop
  2002a4:	d503201f 	nop
  2002a8:	d503201f 	nop
  2002ac:	d503201f 	nop
  2002b0:	d503201f 	nop
  2002b4:	d503201f 	nop
  2002b8:	d503201f 	nop
  2002bc:	d503201f 	nop
  2002c0:	d503201f 	nop
  2002c4:	d503201f 	nop
  2002c8:	d503201f 	nop
  2002cc:	d503201f 	nop
  2002d0:	d503201f 	nop
  2002d4:	d503201f 	nop
  2002d8:	d503201f 	nop
  2002dc:	d503201f 	nop
  2002e0:	d503201f 	nop
  2002e4:	d503201f 	nop
  2002e8:	d503201f 	nop
  2002ec:	d503201f 	nop
  2002f0:	d503201f 	nop
  2002f4:	d503201f 	nop
  2002f8:	d503201f 	nop
  2002fc:	d503201f 	nop
  200300:	d503201f 	nop
  200304:	d503201f 	nop
  200308:	d503201f 	nop
  20030c:	d503201f 	nop
  200310:	d503201f 	nop
  200314:	d503201f 	nop
  200318:	d503201f 	nop
  20031c:	d503201f 	nop
  200320:	d503201f 	nop
  200324:	d503201f 	nop
  200328:	d503201f 	nop
  20032c:	d503201f 	nop
  200330:	d503201f 	nop
  200334:	d503201f 	nop
  200338:	d503201f 	nop
  20033c:	d503201f 	nop
  200340:	d503201f 	nop
  200344:	d503201f 	nop
  200348:	d503201f 	nop
  20034c:	d503201f 	nop
  200350:	d503201f 	nop
  200354:	d503201f 	nop
  200358:	d503201f 	nop
  20035c:	d503201f 	nop
  200360:	d503201f 	nop
  200364:	d503201f 	nop
  200368:	d503201f 	nop
  20036c:	d503201f 	nop
  200370:	d503201f 	nop
  200374:	d503201f 	nop
  200378:	d503201f 	nop
  20037c:	d503201f 	nop
  200380:	d503201f 	nop
  200384:	d503201f 	nop
  200388:	d503201f 	nop
  20038c:	d503201f 	nop
  200390:	d503201f 	nop
  200394:	d503201f 	nop
  200398:	d503201f 	nop
  20039c:	d503201f 	nop
  2003a0:	d503201f 	nop
  2003a4:	d503201f 	nop
  2003a8:	d503201f 	nop
  2003ac:	d503201f 	nop
  2003b0:	d503201f 	nop
  2003b4:	d503201f 	nop
  2003b8:	d503201f 	nop
  2003bc:	d503201f 	nop
  2003c0:	d503201f 	nop
  2003c4:	d503201f 	nop
  2003c8:	d503201f 	nop
  2003cc:	d503201f 	nop
  2003d0:	d503201f 	nop
  2003d4:	d503201f 	nop
  2003d8:	d503201f 	nop
  2003dc:	d503201f 	nop
  2003e0:	d503201f 	nop
  2003e4:	d503201f 	nop
  2003e8:	d503201f 	nop
  2003ec:	d503201f 	nop
  2003f0:	d503201f 	nop
  2003f4:	d503201f 	nop
  2003f8:	d503201f 	nop
  2003fc:	d503201f 	nop
  200400:	d503201f 	nop
  200404:	d503201f 	nop
  200408:	d503201f 	nop
  20040c:	d503201f 	nop
  200410:	d503201f 	nop
  200414:	d503201f 	nop
  200418:	d503201f 	nop
  20041c:	d503201f 	nop
  200420:	d503201f 	nop
  200424:	d503201f 	nop
  200428:	d503201f 	nop
  20042c:	d503201f 	nop
  200430:	d503201f 	nop
  200434:	d503201f 	nop
  200438:	d503201f 	nop
  20043c:	d503201f 	nop
  200440:	d503201f 	nop
  200444:	d503201f 	nop
  200448:	d503201f 	nop
  20044c:	d503201f 	nop
  200450:	d503201f 	nop
  200454:	d503201f 	nop
  200458:	d503201f 	nop
  20045c:	d503201f 	nop
  200460:	d503201f 	nop
  200464:	d503201f 	nop
  200468:	d503201f 	nop
  20046c:	d503201f 	nop
  200470:	d503201f 	nop
  200474:	d503201f 	nop
  200478:	d503201f 	nop
  20047c:	d503201f 	nop
  200480:	d503201f 	nop
  200484:	d503201f 	nop
  200488:	d503201f 	nop
  20048c:	d503201f 	nop
  200490:	d503201f 	nop
  200494:	d503201f 	nop
  200498:	d503201f 	nop
  20049c:	d503201f 	nop
  2004a0:	d503201f 	nop
  2004a4:	d503201f 	nop
  2004a8:	d503201f 	nop
  2004ac:	d503201f 	nop
  2004b0:	d503201f 	nop
  2004b4:	d503201f 	nop
  2004b8:	d503201f 	nop
  2004bc:	d503201f 	nop
  2004c0:	d503201f 	nop
  2004c4:	d503201f 	nop
  2004c8:	d503201f 	nop
  2004cc:	d503201f 	nop
  2004d0:	d503201f 	nop
  2004d4:	d503201f 	nop
  2004d8:	d503201f 	nop
  2004dc:	d503201f 	nop
  2004e0:	d503201f 	nop
  2004e4:	d503201f 	nop
  2004e8:	d503201f 	nop
  2004ec:	d503201f 	nop
  2004f0:	d503201f 	nop
  2004f4:	d503201f 	nop
  2004f8:	d503201f 	nop
  2004fc:	d503201f 	nop
  200500:	d503201f 	nop
  200504:	d503201f 	nop
  200508:	d503201f 	nop
  20050c:	d503201f 	nop
  200510:	d503201f 	nop
  200514:	d503201f 	nop
  200518:	d503201f 	nop
  20051c:	d503201f 	nop
  200520:	d503201f 	nop
  200524:	d503201f 	nop
  200528:	d503201f 	nop
  20052c:	d503201f 	nop
  200530:	d503201f 	nop
  200534:	d503201f 	nop
  200538:	d503201f 	nop
  20053c:	d503201f 	nop
  200540:	d503201f 	nop
  200544:	d503201f 	nop
  200548:	d503201f 	nop
  20054c:	d503201f 	nop
  200550:	d503201f 	nop
  200554:	d503201f 	nop
  200558:	d503201f 	nop
  20055c:	d503201f 	nop
  200560:	d503201f 	nop
  200564:	d503201f 	nop
  200568:	d503201f 	nop
  20056c:	d503201f 	nop
  200570:	d503201f 	nop
  200574:	d503201f 	nop
  200578:	d503201f 	nop
  20057c:	d503201f 	nop
  200580:	d503201f 	nop
  200584:	d503201f 	nop
  200588:	d503201f 	nop
  20058c:	d503201f 	nop
  200590:	d503201f 	nop
  200594:	d503201f 	nop
  200598:	d503201f 	nop
  20059c:	d503201f 	nop
  2005a0:	d503201f 	nop
  2005a4:	d503201f 	nop
  2005a8:	d503201f 	nop
  2005ac:	d503201f 	nop
  2005b0:	d503201f 	nop
  2005b4:	d503201f 	nop
  2005b8:	d503201f 	nop
  2005bc:	d503201f 	nop
  2005c0:	d503201f 	nop
  2005c4:	d503201f 	nop
  2005c8:	d503201f 	nop
  2005cc:	d503201f 	nop
  2005d0:	d503201f 	nop
  2005d4:	d503201f 	nop
  2005d8:	d503201f 	nop
  2005dc:	d503201f 	nop
  2005e0:	d503201f 	nop
  2005e4:	d503201f 	nop
  2005e8:	d503201f 	nop
  2005ec:	d503201f 	nop
  2005f0:	d503201f 	nop
  2005f4:	d503201f 	nop
  2005f8:	d503201f 	nop
  2005fc:	d503201f 	nop
  200600:	d503201f 	nop
  200604:	d503201f 	nop
  200608:	d503201f 	nop
  20060c:	d503201f 	nop
  200610:	d503201f 	nop
  200614:	d503201f 	nop
  200618:	d503201f 	nop
  20061c:	d503201f 	nop
  200620:	d503201f 	nop
  200624:	d503201f 	nop
  200628:	d503201f 	nop
  20062c:	d503201f 	nop
  200630:	d503201f 	nop
  200634:	d503201f 	nop
  200638:	d503201f 	nop
  20063c:	d503201f 	nop
  200640:	d503201f 	nop
  200644:	d503201f 	nop
  200648:	d503201f 	nop
  20064c:	d503201f 	nop
  200650:	d503201f 	nop
  200654:	d503201f 	nop
  200658:	d503201f 	nop
  20065c:	d503201f 	nop
  200660:	d503201f 	nop
  200664:	d503201f 	nop
  200668:	d503201f 	nop
  20066c:	d503201f 	nop
  200670:	d503201f 	nop
  200674:	d503201f 	nop
  200678:	d503201f 	nop
  20067c:	d503201f 	nop
  200680:	d503201f 	nop
  200684:	d503201f 	nop
  200688:	d503201f 	nop
  20068c:	d503201f 	nop
  200690:	d503201f 	nop
  200694:	d503201f 	nop
  200698:	d503201f 	nop
  20069c:	d503201f 	nop
  2006a0:	d503201f 	nop
  2006a4:	d503201f 	nop
  2006a8:	d503201f 	nop
  2006ac:	d503201f 	nop
  2006b0:	d503201f 	nop
  2006b4:	d503201f 	nop
  2006b8:	d503201f 	nop
  2006bc:	d503201f 	nop
  2006c0:	d503201f 	nop
  2006c4:	d503201f 	nop
  2006c8:	d503201f 	nop
  2006cc:	d503201f 	nop
  2006d0:	d503201f 	nop
  2006d4:	d503201f 	nop
  2006d8:	d503201f 	nop
  2006dc:	d503201f 	nop
  2006e0:	d503201f 	nop
  2006e4:	d503201f 	nop
  2006e8:	d503201f 	nop
  2006ec:	d503201f 	nop
  2006f0:	d503201f 	nop
  2006f4:	d503201f 	nop
  2006f8:	d503201f 	nop
  2006fc:	d503201f 	nop
  200700:	d503201f 	nop
  200704:	d503201f 	nop
  200708:	d503201f 	nop
  20070c:	d503201f 	nop
  200710:	d503201f 	nop
  200714:	d503201f 	nop
  200718:	d503201f 	nop
  20071c:	d503201f 	nop
  200720:	d503201f 	nop
  200724:	d503201f 	nop
  200728:	d503201f 	nop
  20072c:	d503201f 	nop
  200730:	d503201f 	nop
  200734:	d503201f 	nop
  200738:	d503201f 	nop
  20073c:	d503201f 	nop
  200740:	d503201f 	nop
  200744:	d503201f 	nop
  200748:	d503201f 	nop
  20074c:	d503201f 	nop
  200750:	d503201f 	nop
  200754:	d503201f 	nop
  200758:	d503201f 	nop
  20075c:	d503201f 	nop
  200760:	d503201f 	nop
  200764:	d503201f 	nop
  200768:	d503201f 	nop
  20076c:	d503201f 	nop
  200770:	d503201f 	nop
  200774:	d503201f 	nop
  200778:	d503201f 	nop
  20077c:	d503201f 	nop
  200780:	d503201f 	nop
  200784:	d503201f 	nop
  200788:	d503201f 	nop
  20078c:	d503201f 	nop
  200790:	d503201f 	nop
  200794:	d503201f 	nop
  200798:	d503201f 	nop
  20079c:	d503201f 	nop
  2007a0:	d503201f 	nop
  2007a4:	d503201f 	nop
  2007a8:	d503201f 	nop
  2007ac:	d503201f 	nop
  2007b0:	d503201f 	nop
  2007b4:	d503201f 	nop
  2007b8:	d503201f 	nop
  2007bc:	d503201f 	nop
  2007c0:	d503201f 	nop
  2007c4:	d503201f 	nop
  2007c8:	d503201f 	nop
  2007cc:	d503201f 	nop
  2007d0:	d503201f 	nop
  2007d4:	d503201f 	nop
  2007d8:	d503201f 	nop
  2007dc:	d503201f 	nop
  2007e0:	d503201f 	nop
  2007e4:	d503201f 	nop
  2007e8:	d503201f 	nop
  2007ec:	d503201f 	nop
  2007f0:	d503201f 	nop
  2007f4:	d503201f 	nop
  2007f8:	d503201f 	nop
  2007fc:	d503201f 	nop

0000000000200800 <vectors>:
  200800:	a9bf7bfd 	stp	x29, x30, [sp,#-16]!
  200804:	940000e2 	bl	200b8c <_exception_entry>
  200808:	1400011a 	b	200c70 <exception_exit>
  20080c:	d503201f 	nop
  200810:	d503201f 	nop
  200814:	d503201f 	nop
  200818:	d503201f 	nop
  20081c:	d503201f 	nop
  200820:	d503201f 	nop
  200824:	d503201f 	nop
  200828:	d503201f 	nop
  20082c:	d503201f 	nop
  200830:	d503201f 	nop
  200834:	d503201f 	nop
  200838:	d503201f 	nop
  20083c:	d503201f 	nop
  200840:	d503201f 	nop
  200844:	d503201f 	nop
  200848:	d503201f 	nop
  20084c:	d503201f 	nop
  200850:	d503201f 	nop
  200854:	d503201f 	nop
  200858:	d503201f 	nop
  20085c:	d503201f 	nop
  200860:	d503201f 	nop
  200864:	d503201f 	nop
  200868:	d503201f 	nop
  20086c:	d503201f 	nop
  200870:	d503201f 	nop
  200874:	d503201f 	nop
  200878:	d503201f 	nop
  20087c:	d503201f 	nop
  200880:	a9bf7bfd 	stp	x29, x30, [sp,#-16]!
  200884:	940000c2 	bl	200b8c <_exception_entry>
  200888:	140000fa 	b	200c70 <exception_exit>
  20088c:	d503201f 	nop
  200890:	d503201f 	nop
  200894:	d503201f 	nop
  200898:	d503201f 	nop
  20089c:	d503201f 	nop
  2008a0:	d503201f 	nop
  2008a4:	d503201f 	nop
  2008a8:	d503201f 	nop
  2008ac:	d503201f 	nop
  2008b0:	d503201f 	nop
  2008b4:	d503201f 	nop
  2008b8:	d503201f 	nop
  2008bc:	d503201f 	nop
  2008c0:	d503201f 	nop
  2008c4:	d503201f 	nop
  2008c8:	d503201f 	nop
  2008cc:	d503201f 	nop
  2008d0:	d503201f 	nop
  2008d4:	d503201f 	nop
  2008d8:	d503201f 	nop
  2008dc:	d503201f 	nop
  2008e0:	d503201f 	nop
  2008e4:	d503201f 	nop
  2008e8:	d503201f 	nop
  2008ec:	d503201f 	nop
  2008f0:	d503201f 	nop
  2008f4:	d503201f 	nop
  2008f8:	d503201f 	nop
  2008fc:	d503201f 	nop
  200900:	a9bf7bfd 	stp	x29, x30, [sp,#-16]!
  200904:	940000a2 	bl	200b8c <_exception_entry>
  200908:	140000da 	b	200c70 <exception_exit>
  20090c:	d503201f 	nop
  200910:	d503201f 	nop
  200914:	d503201f 	nop
  200918:	d503201f 	nop
  20091c:	d503201f 	nop
  200920:	d503201f 	nop
  200924:	d503201f 	nop
  200928:	d503201f 	nop
  20092c:	d503201f 	nop
  200930:	d503201f 	nop
  200934:	d503201f 	nop
  200938:	d503201f 	nop
  20093c:	d503201f 	nop
  200940:	d503201f 	nop
  200944:	d503201f 	nop
  200948:	d503201f 	nop
  20094c:	d503201f 	nop
  200950:	d503201f 	nop
  200954:	d503201f 	nop
  200958:	d503201f 	nop
  20095c:	d503201f 	nop
  200960:	d503201f 	nop
  200964:	d503201f 	nop
  200968:	d503201f 	nop
  20096c:	d503201f 	nop
  200970:	d503201f 	nop
  200974:	d503201f 	nop
  200978:	d503201f 	nop
  20097c:	d503201f 	nop
  200980:	a9bf7bfd 	stp	x29, x30, [sp,#-16]!
  200984:	94000082 	bl	200b8c <_exception_entry>
  200988:	140000ba 	b	200c70 <exception_exit>
  20098c:	d503201f 	nop
  200990:	d503201f 	nop
  200994:	d503201f 	nop
  200998:	d503201f 	nop
  20099c:	d503201f 	nop
  2009a0:	d503201f 	nop
  2009a4:	d503201f 	nop
  2009a8:	d503201f 	nop
  2009ac:	d503201f 	nop
  2009b0:	d503201f 	nop
  2009b4:	d503201f 	nop
  2009b8:	d503201f 	nop
  2009bc:	d503201f 	nop
  2009c0:	d503201f 	nop
  2009c4:	d503201f 	nop
  2009c8:	d503201f 	nop
  2009cc:	d503201f 	nop
  2009d0:	d503201f 	nop
  2009d4:	d503201f 	nop
  2009d8:	d503201f 	nop
  2009dc:	d503201f 	nop
  2009e0:	d503201f 	nop
  2009e4:	d503201f 	nop
  2009e8:	d503201f 	nop
  2009ec:	d503201f 	nop
  2009f0:	d503201f 	nop
  2009f4:	d503201f 	nop
  2009f8:	d503201f 	nop
  2009fc:	d503201f 	nop
  200a00:	a9bf7bfd 	stp	x29, x30, [sp,#-16]!
  200a04:	94000062 	bl	200b8c <_exception_entry>
  200a08:	1400009a 	b	200c70 <exception_exit>
  200a0c:	d503201f 	nop
  200a10:	d503201f 	nop
  200a14:	d503201f 	nop
  200a18:	d503201f 	nop
  200a1c:	d503201f 	nop
  200a20:	d503201f 	nop
  200a24:	d503201f 	nop
  200a28:	d503201f 	nop
  200a2c:	d503201f 	nop
  200a30:	d503201f 	nop
  200a34:	d503201f 	nop
  200a38:	d503201f 	nop
  200a3c:	d503201f 	nop
  200a40:	d503201f 	nop
  200a44:	d503201f 	nop
  200a48:	d503201f 	nop
  200a4c:	d503201f 	nop
  200a50:	d503201f 	nop
  200a54:	d503201f 	nop
  200a58:	d503201f 	nop
  200a5c:	d503201f 	nop
  200a60:	d503201f 	nop
  200a64:	d503201f 	nop
  200a68:	d503201f 	nop
  200a6c:	d503201f 	nop
  200a70:	d503201f 	nop
  200a74:	d503201f 	nop
  200a78:	d503201f 	nop
  200a7c:	d503201f 	nop
  200a80:	a9bf7bfd 	stp	x29, x30, [sp,#-16]!
  200a84:	94000042 	bl	200b8c <_exception_entry>
  200a88:	1400007a 	b	200c70 <exception_exit>
  200a8c:	d503201f 	nop
  200a90:	d503201f 	nop
  200a94:	d503201f 	nop
  200a98:	d503201f 	nop
  200a9c:	d503201f 	nop
  200aa0:	d503201f 	nop
  200aa4:	d503201f 	nop
  200aa8:	d503201f 	nop
  200aac:	d503201f 	nop
  200ab0:	d503201f 	nop
  200ab4:	d503201f 	nop
  200ab8:	d503201f 	nop
  200abc:	d503201f 	nop
  200ac0:	d503201f 	nop
  200ac4:	d503201f 	nop
  200ac8:	d503201f 	nop
  200acc:	d503201f 	nop
  200ad0:	d503201f 	nop
  200ad4:	d503201f 	nop
  200ad8:	d503201f 	nop
  200adc:	d503201f 	nop
  200ae0:	d503201f 	nop
  200ae4:	d503201f 	nop
  200ae8:	d503201f 	nop
  200aec:	d503201f 	nop
  200af0:	d503201f 	nop
  200af4:	d503201f 	nop
  200af8:	d503201f 	nop
  200afc:	d503201f 	nop
  200b00:	a9bf7bfd 	stp	x29, x30, [sp,#-16]!
  200b04:	94000022 	bl	200b8c <_exception_entry>
  200b08:	1400005a 	b	200c70 <exception_exit>
  200b0c:	d503201f 	nop
  200b10:	d503201f 	nop
  200b14:	d503201f 	nop
  200b18:	d503201f 	nop
  200b1c:	d503201f 	nop
  200b20:	d503201f 	nop
  200b24:	d503201f 	nop
  200b28:	d503201f 	nop
  200b2c:	d503201f 	nop
  200b30:	d503201f 	nop
  200b34:	d503201f 	nop
  200b38:	d503201f 	nop
  200b3c:	d503201f 	nop
  200b40:	d503201f 	nop
  200b44:	d503201f 	nop
  200b48:	d503201f 	nop
  200b4c:	d503201f 	nop
  200b50:	d503201f 	nop
  200b54:	d503201f 	nop
  200b58:	d503201f 	nop
  200b5c:	d503201f 	nop
  200b60:	d503201f 	nop
  200b64:	d503201f 	nop
  200b68:	d503201f 	nop
  200b6c:	d503201f 	nop
  200b70:	d503201f 	nop
  200b74:	d503201f 	nop
  200b78:	d503201f 	nop
  200b7c:	d503201f 	nop
  200b80:	a9bf7bfd 	stp	x29, x30, [sp,#-16]!
  200b84:	94000002 	bl	200b8c <_exception_entry>
  200b88:	1400003a 	b	200c70 <exception_exit>

0000000000200b8c <_exception_entry>:
  200b8c:	a9bf73fb 	stp	x27, x28, [sp,#-16]!
  200b90:	a9bf6bf9 	stp	x25, x26, [sp,#-16]!
  200b94:	a9bf63f7 	stp	x23, x24, [sp,#-16]!
  200b98:	a9bf5bf5 	stp	x21, x22, [sp,#-16]!
  200b9c:	a9bf53f3 	stp	x19, x20, [sp,#-16]!
  200ba0:	a9bf4bf1 	stp	x17, x18, [sp,#-16]!
  200ba4:	a9bf43ef 	stp	x15, x16, [sp,#-16]!
  200ba8:	a9bf3bed 	stp	x13, x14, [sp,#-16]!
  200bac:	a9bf33eb 	stp	x11, x12, [sp,#-16]!
  200bb0:	a9bf2be9 	stp	x9, x10, [sp,#-16]!
  200bb4:	a9bf23e7 	stp	x7, x8, [sp,#-16]!
  200bb8:	a9bf1be5 	stp	x5, x6, [sp,#-16]!
  200bbc:	a9bf13e3 	stp	x3, x4, [sp,#-16]!
  200bc0:	a9bf0be1 	stp	x1, x2, [sp,#-16]!
  200bc4:	d538424b 	mrs	x11, currentel
  200bc8:	f100317f 	cmp	x11, #0xc
  200bcc:	540000a0 	b.eq	200be0 <_exception_entry+0x54>
  200bd0:	f100217f 	cmp	x11, #0x8
  200bd4:	540001a0 	b.eq	200c08 <_exception_entry+0x7c>
  200bd8:	f100117f 	cmp	x11, #0x4
  200bdc:	540002a0 	b.eq	200c30 <_exception_entry+0xa4>
  200be0:	d53e5201 	mrs	x1, esr_el3
  200be4:	d53e4022 	mrs	x2, elr_el3
  200be8:	d53b4223 	mrs	x3, daif
  200bec:	d53ec004 	mrs	x4, vbar_el3
  200bf0:	d53e4005 	mrs	x5, spsr_el3
  200bf4:	d103c3e6 	sub	x6, sp, #0xf0
  200bf8:	d53e1007 	mrs	x7, sctlr_el3
  200bfc:	d53e1108 	mrs	x8, scr_el3
  200c00:	d53e2009 	mrs	x9, ttbr0_el3
  200c04:	14000014 	b	200c54 <_exception_entry+0xc8>
  200c08:	d53c5201 	mrs	x1, esr_el2
  200c0c:	d53c4022 	mrs	x2, elr_el2
  200c10:	d53b4223 	mrs	x3, daif
  200c14:	d53cc004 	mrs	x4, vbar_el2
  200c18:	d53c4005 	mrs	x5, spsr_el2
  200c1c:	d103c3e6 	sub	x6, sp, #0xf0
  200c20:	d53c1007 	mrs	x7, sctlr_el2
  200c24:	d53c1108 	mrs	x8, hcr_el2
  200c28:	d53c2009 	mrs	x9, ttbr0_el2
  200c2c:	1400000a 	b	200c54 <_exception_entry+0xc8>
  200c30:	d5385201 	mrs	x1, esr_el1
  200c34:	d5384022 	mrs	x2, elr_el1
  200c38:	d53b4223 	mrs	x3, daif
  200c3c:	d538c004 	mrs	x4, vbar_el1
  200c40:	d5384005 	mrs	x5, spsr_el1
  200c44:	d103c3e6 	sub	x6, sp, #0xf0
  200c48:	d5381007 	mrs	x7, sctlr_el1
  200c4c:	d2800008 	mov	x8, #0x0                   	// #0
  200c50:	d5382009 	mrs	x9, ttbr0_el1
  200c54:	a9bf03e2 	stp	x2, x0, [sp,#-16]!
  200c58:	a9bf07e3 	stp	x3, x1, [sp,#-16]!
  200c5c:	a9bf13e5 	stp	x5, x4, [sp,#-16]!
  200c60:	a9bf1be7 	stp	x7, x6, [sp,#-16]!
  200c64:	a9bf23e9 	stp	x9, x8, [sp,#-16]!
  200c68:	910003e0 	mov	x0, sp
  200c6c:	d65f03c0 	ret

0000000000200c70 <exception_exit>:
  200c70:	910103ff 	add	sp, sp, #0x40
  200c74:	a8c103e2 	ldp	x2, x0, [sp],#16
  200c78:	d538424b 	mrs	x11, currentel
  200c7c:	f100317f 	cmp	x11, #0xc
  200c80:	540000a0 	b.eq	200c94 <exception_exit+0x24>
  200c84:	f100217f 	cmp	x11, #0x8
  200c88:	540000a0 	b.eq	200c9c <exception_exit+0x2c>
  200c8c:	f100117f 	cmp	x11, #0x4
  200c90:	540000a0 	b.eq	200ca4 <exception_exit+0x34>
  200c94:	d51e4022 	msr	elr_el3, x2
  200c98:	14000004 	b	200ca8 <exception_exit+0x38>
  200c9c:	d51c4022 	msr	elr_el2, x2
  200ca0:	14000002 	b	200ca8 <exception_exit+0x38>
  200ca4:	d5184022 	msr	elr_el1, x2
  200ca8:	a8c10be1 	ldp	x1, x2, [sp],#16
  200cac:	a8c113e3 	ldp	x3, x4, [sp],#16
  200cb0:	a8c11be5 	ldp	x5, x6, [sp],#16
  200cb4:	a8c123e7 	ldp	x7, x8, [sp],#16
  200cb8:	a8c12be9 	ldp	x9, x10, [sp],#16
  200cbc:	a8c133eb 	ldp	x11, x12, [sp],#16
  200cc0:	a8c13bed 	ldp	x13, x14, [sp],#16
  200cc4:	a8c143ef 	ldp	x15, x16, [sp],#16
  200cc8:	a8c14bf1 	ldp	x17, x18, [sp],#16
  200ccc:	a8c153f3 	ldp	x19, x20, [sp],#16
  200cd0:	a8c15bf5 	ldp	x21, x22, [sp],#16
  200cd4:	a8c163f7 	ldp	x23, x24, [sp],#16
  200cd8:	a8c16bf9 	ldp	x25, x26, [sp],#16
  200cdc:	a8c173fb 	ldp	x27, x28, [sp],#16
  200ce0:	a8c17bfd 	ldp	x29, x30, [sp],#16
  200ce4:	d69f03e0 	eret

0000000000200ce8 <_main>:
  200ce8:	58000ac0 	ldr	x0, 200e40 <hang+0x20>
  200cec:	927cec1f 	and	sp, x0, #0xfffffffffffffff0
  200cf0:	94000064 	bl	200e80 <main>
  200cf4:	f9404240 	ldr	x0, [x18,#128]
  200cf8:	927cec1f 	and	sp, x0, #0xfffffffffffffff0
  200cfc:	f9404a52 	ldr	x18, [x18,#144]
  200d00:	100000be 	adr	x30, 200d14 <relocation_return>
  200d04:	f9404649 	ldr	x9, [x18,#136]
  200d08:	8b0903de 	add	x30, x30, x9
  200d0c:	f9403240 	ldr	x0, [x18,#96]
  200d10:	14000007 	b	200d2c <relocate_code>

0000000000200d14 <relocation_return>:
  200d14:	97fffd05 	bl	200128 <c_runtime_cpu_setup>
  200d18:	58000980 	ldr	x0, 200e48 <hang+0x28>
  200d1c:	580009a1 	ldr	x1, 200e50 <hang+0x30>

0000000000200d20 <clear_loop>:
  200d20:	f800841f 	str	xzr, [x0],#8
  200d24:	eb01001f 	cmp	x0, x1
  200d28:	54ffffc3 	b.cc	200d20 <clear_loop>

0000000000200d2c <relocate_code>:
  200d2c:	a9be7bfd 	stp	x29, x30, [sp,#-32]!
  200d30:	910003fd 	mov	x29, sp
  200d34:	f9000be0 	str	x0, [sp,#16]
  200d38:	10ff9641 	adr	x1, 200000 <__image_copy_start>
  200d3c:	eb010009 	subs	x9, x0, x1
  200d40:	540002c0 	b.eq	200d98 <relocate_done>
  200d44:	58ff9621 	ldr	x1, 200008 <_TEXT_BASE>
  200d48:	eb010009 	subs	x9, x0, x1
  200d4c:	10ff95a1 	adr	x1, 200000 <__image_copy_start>
  200d50:	100076c2 	adr	x2, 201c28 <__bss_start>

0000000000200d54 <copy_loop>:
  200d54:	a8c12c2a 	ldp	x10, x11, [x1],#16
  200d58:	a8812c0a 	stp	x10, x11, [x0],#16
  200d5c:	eb02003f 	cmp	x1, x2
  200d60:	54ffffa3 	b.cc	200d54 <copy_loop>
  200d64:	f9000fe0 	str	x0, [sp,#24]
  200d68:	10007602 	adr	x2, 201c28 <__bss_start>
  200d6c:	100075e3 	adr	x3, 201c28 <__bss_start>

0000000000200d70 <fixloop>:
  200d70:	a8c10440 	ldp	x0, x1, [x2],#16
  200d74:	f8408444 	ldr	x4, [x2],#8
  200d78:	92407c21 	and	x1, x1, #0xffffffff
  200d7c:	f1100c3f 	cmp	x1, #0x403
  200d80:	54000081 	b.ne	200d90 <fixnext>
  200d84:	8b090000 	add	x0, x0, x9
  200d88:	8b090084 	add	x4, x4, x9
  200d8c:	f9000004 	str	x4, [x0]

0000000000200d90 <fixnext>:
  200d90:	eb03005f 	cmp	x2, x3
  200d94:	54fffee3 	b.cc	200d70 <fixloop>

0000000000200d98 <relocate_done>:
  200d98:	d5384241 	mrs	x1, currentel
  200d9c:	f100303f 	cmp	x1, #0xc
  200da0:	540000c0 	b.eq	200db8 <relocate_done+0x20>
  200da4:	f100203f 	cmp	x1, #0x8
  200da8:	540000c0 	b.eq	200dc0 <relocate_done+0x28>
  200dac:	f100103f 	cmp	x1, #0x4
  200db0:	540000c0 	b.eq	200dc8 <relocate_done+0x30>
  200db4:	9400001b 	bl	200e20 <hang>
  200db8:	d53e1000 	mrs	x0, sctlr_el3
  200dbc:	14000004 	b	200dcc <relocate_done+0x34>
  200dc0:	d53c1000 	mrs	x0, sctlr_el2
  200dc4:	14000002 	b	200dcc <relocate_done+0x34>
  200dc8:	d5381000 	mrs	x0, sctlr_el1
  200dcc:	361000c0 	tbz	w0, #2, 200de4 <relocate_done+0x4c>
  200dd0:	36600060 	tbz	w0, #12, 200ddc <relocate_done+0x44>
  200dd4:	d508751f 	ic	iallu
  200dd8:	d5033fdf 	isb
  200ddc:	a94107e0 	ldp	x0, x1, [sp,#16]
  200de0:	94000003 	bl	200dec <__asm_flush_dcache_range>
  200de4:	a8c27bfd 	ldp	x29, x30, [sp],#32
  200de8:	d65f03c0 	ret

0000000000200dec <__asm_flush_dcache_range>:
  200dec:	d53b0023 	mrs	x3, ctr_el0
  200df0:	d350fc63 	lsr	x3, x3, #16
  200df4:	92400c63 	and	x3, x3, #0xf
  200df8:	d2800082 	mov	x2, #0x4                   	// #4
  200dfc:	9ac32042 	lsl	x2, x2, x3
  200e00:	d1000443 	sub	x3, x2, #0x1
  200e04:	8a230000 	bic	x0, x0, x3
  200e08:	d50b7e20 	dc	civac, x0
  200e0c:	8b020000 	add	x0, x0, x2
  200e10:	eb01001f 	cmp	x0, x1
  200e14:	54ffffa3 	b.cc	200e08 <__asm_flush_dcache_range+0x1c>
  200e18:	d5033f9f 	dsb	sy
  200e1c:	d65f03c0 	ret

0000000000200e20 <hang>:
  200e20:	94000000 	bl	200e20 <hang>
  200e24:	00000000 	.inst	0x00000000 ; undefined
  200e28:	016e3600 	.word	0x016e3600
  200e2c:	00000000 	.word	0x00000000
  200e30:	fee00000 	.word	0xfee00000
  200e34:	00000000 	.word	0x00000000
  200e38:	fef00000 	.word	0xfef00000
  200e3c:	00000000 	.word	0x00000000
  200e40:	00400000 	.word	0x00400000
  200e44:	00000000 	.word	0x00000000
  200e48:	00201c28 	.word	0x00201c28
  200e4c:	00000000 	.word	0x00000000
  200e50:	00201c50 	.word	0x00201c50
  200e54:	00000000 	.word	0x00000000

0000000000200e58 <uart_test>:
  200e58:	a9bf7bfd 	stp	x29, x30, [sp,#-16]!
  200e5c:	910003fd 	mov	x29, sp
  200e60:	940000d9 	bl	2011c4 <uart_init>
  200e64:	940002eb 	bl	201a10 <printf_test>
  200e68:	b0000000 	adrp	x0, 201000 <led_delay+0x3c>
  200e6c:	912bc000 	add	x0, x0, #0xaf0
  200e70:	940002bf 	bl	20196c <my_printf>
  200e74:	d503201f 	nop
  200e78:	a8c17bfd 	ldp	x29, x30, [sp],#16
  200e7c:	d65f03c0 	ret

0000000000200e80 <main>:
  200e80:	a9bf7bfd 	stp	x29, x30, [sp,#-16]!
  200e84:	910003fd 	mov	x29, sp
  200e88:	9400000b 	bl	200eb4 <led_init>
  200e8c:	52800000 	mov	w0, #0x0                   	// #0
  200e90:	94000032 	bl	200f58 <led_ctl>
  200e94:	97fffff1 	bl	200e58 <uart_test>
  200e98:	52800020 	mov	w0, #0x1                   	// #1
  200e9c:	9400002f 	bl	200f58 <led_ctl>
  200ea0:	94000049 	bl	200fc4 <led_delay>
  200ea4:	52800000 	mov	w0, #0x0                   	// #0
  200ea8:	9400002c 	bl	200f58 <led_ctl>
  200eac:	94000046 	bl	200fc4 <led_delay>
  200eb0:	17fffffa 	b	200e98 <main+0x18>

0000000000200eb4 <led_init>:
  200eb4:	b0000000 	adrp	x0, 201000 <led_delay+0x3c>
  200eb8:	9130a000 	add	x0, x0, #0xc28
  200ebc:	d2806f81 	mov	x1, #0x37c                 	// #892
  200ec0:	f2bfeec1 	movk	x1, #0xff76, lsl #16
  200ec4:	f9000001 	str	x1, [x0]
  200ec8:	b0000000 	adrp	x0, 201000 <led_delay+0x3c>
  200ecc:	9130c000 	add	x0, x0, #0xc30
  200ed0:	d29c0381 	mov	x1, #0xe01c                	// #57372
  200ed4:	f2bfeee1 	movk	x1, #0xff77, lsl #16
  200ed8:	f9000001 	str	x1, [x0]
  200edc:	b0000000 	adrp	x0, 201000 <led_delay+0x3c>
  200ee0:	9130e000 	add	x0, x0, #0xc38
  200ee4:	d2900001 	mov	x1, #0x8000                	// #32768
  200ee8:	f2bfef01 	movk	x1, #0xff78, lsl #16
  200eec:	f9000001 	str	x1, [x0]
  200ef0:	b0000000 	adrp	x0, 201000 <led_delay+0x3c>
  200ef4:	91310000 	add	x0, x0, #0xc40
  200ef8:	d2900081 	mov	x1, #0x8004                	// #32772
  200efc:	f2bfef01 	movk	x1, #0xff78, lsl #16
  200f00:	f9000001 	str	x1, [x0]
  200f04:	b0000000 	adrp	x0, 201000 <led_delay+0x3c>
  200f08:	9130a000 	add	x0, x0, #0xc28
  200f0c:	f9400000 	ldr	x0, [x0]
  200f10:	52a00201 	mov	w1, #0x100000              	// #1048576
  200f14:	b9000001 	str	w1, [x0]
  200f18:	b0000000 	adrp	x0, 201000 <led_delay+0x3c>
  200f1c:	9130c000 	add	x0, x0, #0xc30
  200f20:	f9400000 	ldr	x0, [x0]
  200f24:	52a18001 	mov	w1, #0xc000000             	// #201326592
  200f28:	b9000001 	str	w1, [x0]
  200f2c:	b0000000 	adrp	x0, 201000 <led_delay+0x3c>
  200f30:	91310000 	add	x0, x0, #0xc40
  200f34:	f9400000 	ldr	x0, [x0]
  200f38:	b0000001 	adrp	x1, 201000 <led_delay+0x3c>
  200f3c:	91310021 	add	x1, x1, #0xc40
  200f40:	f9400021 	ldr	x1, [x1]
  200f44:	b9400021 	ldr	w1, [x1]
  200f48:	32030021 	orr	w1, w1, #0x20000000
  200f4c:	b9000001 	str	w1, [x0]
  200f50:	d503201f 	nop
  200f54:	d65f03c0 	ret

0000000000200f58 <led_ctl>:
  200f58:	d10043ff 	sub	sp, sp, #0x10
  200f5c:	b9000fe0 	str	w0, [sp,#12]
  200f60:	b9400fe0 	ldr	w0, [sp,#12]
  200f64:	7100001f 	cmp	w0, #0x0
  200f68:	54000160 	b.eq	200f94 <led_ctl+0x3c>
  200f6c:	b0000000 	adrp	x0, 201000 <led_delay+0x3c>
  200f70:	9130e000 	add	x0, x0, #0xc38
  200f74:	f9400000 	ldr	x0, [x0]
  200f78:	b0000001 	adrp	x1, 201000 <led_delay+0x3c>
  200f7c:	9130e021 	add	x1, x1, #0xc38
  200f80:	f9400021 	ldr	x1, [x1]
  200f84:	b9400021 	ldr	w1, [x1]
  200f88:	32030021 	orr	w1, w1, #0x20000000
  200f8c:	b9000001 	str	w1, [x0]
  200f90:	1400000a 	b	200fb8 <led_ctl+0x60>
  200f94:	b0000000 	adrp	x0, 201000 <led_delay+0x3c>
  200f98:	9130e000 	add	x0, x0, #0xc38
  200f9c:	f9400000 	ldr	x0, [x0]
  200fa0:	b0000001 	adrp	x1, 201000 <led_delay+0x3c>
  200fa4:	9130e021 	add	x1, x1, #0xc38
  200fa8:	f9400021 	ldr	x1, [x1]
  200fac:	b9400021 	ldr	w1, [x1]
  200fb0:	12027821 	and	w1, w1, #0xdfffffff
  200fb4:	b9000001 	str	w1, [x0]
  200fb8:	d503201f 	nop
  200fbc:	910043ff 	add	sp, sp, #0x10
  200fc0:	d65f03c0 	ret

0000000000200fc4 <led_delay>:
  200fc4:	d10043ff 	sub	sp, sp, #0x10
  200fc8:	f90007ff 	str	xzr, [sp,#8]
  200fcc:	1400000e 	b	201004 <led_delay+0x40>
  200fd0:	f90003ff 	str	xzr, [sp]
  200fd4:	14000004 	b	200fe4 <led_delay+0x20>
  200fd8:	f94003e0 	ldr	x0, [sp]
  200fdc:	91000400 	add	x0, x0, #0x1
  200fe0:	f90003e0 	str	x0, [sp]
  200fe4:	f94003e1 	ldr	x1, [sp]
  200fe8:	d290d3e0 	mov	x0, #0x869f                	// #34463
  200fec:	f2a00020 	movk	x0, #0x1, lsl #16
  200ff0:	eb00003f 	cmp	x1, x0
  200ff4:	54ffff29 	b.ls	200fd8 <led_delay+0x14>
  200ff8:	f94007e0 	ldr	x0, [sp,#8]
  200ffc:	91000400 	add	x0, x0, #0x1
  201000:	f90007e0 	str	x0, [sp,#8]
  201004:	f94007e0 	ldr	x0, [sp,#8]
  201008:	f100241f 	cmp	x0, #0x9
  20100c:	54fffe29 	b.ls	200fd0 <led_delay+0xc>
  201010:	d503201f 	nop
  201014:	910043ff 	add	sp, sp, #0x10
  201018:	d65f03c0 	ret

000000000020101c <rk_uart_iomux>:
  20101c:	90000000 	adrp	x0, 201000 <led_delay+0x3c>
  201020:	91312000 	add	x0, x0, #0xc48
  201024:	d29c0501 	mov	x1, #0xe028                	// #57384
  201028:	f2bfeec1 	movk	x1, #0xff76, lsl #16
  20102c:	f9000001 	str	x1, [x0]
  201030:	90000000 	adrp	x0, 201000 <led_delay+0x3c>
  201034:	91312000 	add	x0, x0, #0xc48
  201038:	f9400000 	ldr	x0, [x0]
  20103c:	52805001 	mov	w1, #0x280                 	// #640
  201040:	72a07801 	movk	w1, #0x3c0, lsl #16
  201044:	b9000001 	str	w1, [x0]
  201048:	d503201f 	nop
  20104c:	d65f03c0 	ret

0000000000201050 <rk_uart_reset>:
  201050:	a9bf7bfd 	stp	x29, x30, [sp,#-16]!
  201054:	910003fd 	mov	x29, sp
  201058:	d2801100 	mov	x0, #0x88                  	// #136
  20105c:	f2bfe340 	movk	x0, #0xff1a, lsl #16
  201060:	528000c1 	mov	w1, #0x6                   	// #6
  201064:	b9000001 	str	w1, [x0]
  201068:	52800000 	mov	w0, #0x0                   	// #0
  20106c:	97ffffbb 	bl	200f58 <led_ctl>
  201070:	d2800080 	mov	x0, #0x4                   	// #4
  201074:	f2bfe340 	movk	x0, #0xff1a, lsl #16
  201078:	b900001f 	str	wzr, [x0]
  20107c:	d503201f 	nop
  201080:	a8c17bfd 	ldp	x29, x30, [sp],#16
  201084:	d65f03c0 	ret

0000000000201088 <rk_uart_set_iop>:
  201088:	d2800200 	mov	x0, #0x10                  	// #16
  20108c:	f2bfe340 	movk	x0, #0xff1a, lsl #16
  201090:	b900001f 	str	wzr, [x0]
  201094:	d503201f 	nop
  201098:	d65f03c0 	ret

000000000020109c <rk_uart_set_lcr>:
  20109c:	d2800180 	mov	x0, #0xc                   	// #12
  2010a0:	f2bfe340 	movk	x0, #0xff1a, lsl #16
  2010a4:	d2800181 	mov	x1, #0xc                   	// #12
  2010a8:	f2bfe341 	movk	x1, #0xff1a, lsl #16
  2010ac:	b9400021 	ldr	w1, [x1]
  2010b0:	121e7421 	and	w1, w1, #0xfffffffc
  2010b4:	b9000001 	str	w1, [x0]
  2010b8:	d2800180 	mov	x0, #0xc                   	// #12
  2010bc:	f2bfe340 	movk	x0, #0xff1a, lsl #16
  2010c0:	d2800181 	mov	x1, #0xc                   	// #12
  2010c4:	f2bfe341 	movk	x1, #0xff1a, lsl #16
  2010c8:	b9400021 	ldr	w1, [x1]
  2010cc:	32000421 	orr	w1, w1, #0x3
  2010d0:	b9000001 	str	w1, [x0]
  2010d4:	d2800180 	mov	x0, #0xc                   	// #12
  2010d8:	f2bfe340 	movk	x0, #0xff1a, lsl #16
  2010dc:	d2800181 	mov	x1, #0xc                   	// #12
  2010e0:	f2bfe341 	movk	x1, #0xff1a, lsl #16
  2010e4:	b9400021 	ldr	w1, [x1]
  2010e8:	121c7821 	and	w1, w1, #0xfffffff7
  2010ec:	b9000001 	str	w1, [x0]
  2010f0:	d2800180 	mov	x0, #0xc                   	// #12
  2010f4:	f2bfe340 	movk	x0, #0xff1a, lsl #16
  2010f8:	d2800181 	mov	x1, #0xc                   	// #12
  2010fc:	f2bfe341 	movk	x1, #0xff1a, lsl #16
  201100:	b9400021 	ldr	w1, [x1]
  201104:	121d7821 	and	w1, w1, #0xfffffffb
  201108:	b9000001 	str	w1, [x0]
  20110c:	d503201f 	nop
  201110:	d65f03c0 	ret

0000000000201114 <rk_uart_set_baudrate>:
  201114:	d10043ff 	sub	sp, sp, #0x10
  201118:	d2800020 	mov	x0, #0x1                   	// #1
  20111c:	f90007e0 	str	x0, [sp,#8]
  201120:	d2800180 	mov	x0, #0xc                   	// #12
  201124:	f2bfe340 	movk	x0, #0xff1a, lsl #16
  201128:	d2800181 	mov	x1, #0xc                   	// #12
  20112c:	f2bfe341 	movk	x1, #0xff1a, lsl #16
  201130:	b9400021 	ldr	w1, [x1]
  201134:	32190021 	orr	w1, w1, #0x80
  201138:	b9000001 	str	w1, [x0]
  20113c:	d2bfe340 	mov	x0, #0xff1a0000            	// #4279894016
  201140:	f94007e1 	ldr	x1, [sp,#8]
  201144:	12001c21 	and	w1, w1, #0xff
  201148:	b9000001 	str	w1, [x0]
  20114c:	d2800080 	mov	x0, #0x4                   	// #4
  201150:	f2bfe340 	movk	x0, #0xff1a, lsl #16
  201154:	f94007e1 	ldr	x1, [sp,#8]
  201158:	d348fc21 	lsr	x1, x1, #8
  20115c:	12001c21 	and	w1, w1, #0xff
  201160:	b9000001 	str	w1, [x0]
  201164:	d2800180 	mov	x0, #0xc                   	// #12
  201168:	f2bfe340 	movk	x0, #0xff1a, lsl #16
  20116c:	d2800181 	mov	x1, #0xc                   	// #12
  201170:	f2bfe341 	movk	x1, #0xff1a, lsl #16
  201174:	b9400021 	ldr	w1, [x1]
  201178:	12187821 	and	w1, w1, #0xffffff7f
  20117c:	b9000001 	str	w1, [x0]
  201180:	d503201f 	nop
  201184:	910043ff 	add	sp, sp, #0x10
  201188:	d65f03c0 	ret

000000000020118c <rk_uart_set_fifo>:
  20118c:	d2801300 	mov	x0, #0x98                  	// #152
  201190:	f2bfe340 	movk	x0, #0xff1a, lsl #16
  201194:	52800021 	mov	w1, #0x1                   	// #1
  201198:	b9000001 	str	w1, [x0]
  20119c:	d2801380 	mov	x0, #0x9c                  	// #156
  2011a0:	f2bfe340 	movk	x0, #0xff1a, lsl #16
  2011a4:	52800061 	mov	w1, #0x3                   	// #3
  2011a8:	b9000001 	str	w1, [x0]
  2011ac:	d2801400 	mov	x0, #0xa0                  	// #160
  2011b0:	f2bfe340 	movk	x0, #0xff1a, lsl #16
  2011b4:	52800021 	mov	w1, #0x1                   	// #1
  2011b8:	b9000001 	str	w1, [x0]
  2011bc:	d503201f 	nop
  2011c0:	d65f03c0 	ret

00000000002011c4 <uart_init>:
  2011c4:	a9bf7bfd 	stp	x29, x30, [sp,#-16]!
  2011c8:	910003fd 	mov	x29, sp
  2011cc:	97ffff94 	bl	20101c <rk_uart_iomux>
  2011d0:	97ffffa0 	bl	201050 <rk_uart_reset>
  2011d4:	97ffffad 	bl	201088 <rk_uart_set_iop>
  2011d8:	97ffffb1 	bl	20109c <rk_uart_set_lcr>
  2011dc:	97ffffce 	bl	201114 <rk_uart_set_baudrate>
  2011e0:	97ffffeb 	bl	20118c <rk_uart_set_fifo>
  2011e4:	d503201f 	nop
  2011e8:	a8c17bfd 	ldp	x29, x30, [sp],#16
  2011ec:	d65f03c0 	ret

00000000002011f0 <rk_uart_sendbyte>:
  2011f0:	d10043ff 	sub	sp, sp, #0x10
  2011f4:	39003fe0 	strb	w0, [sp,#15]
  2011f8:	d503201f 	nop
  2011fc:	d2800f80 	mov	x0, #0x7c                  	// #124
  201200:	f2bfe340 	movk	x0, #0xff1a, lsl #16
  201204:	b9400000 	ldr	w0, [x0]
  201208:	121f0000 	and	w0, w0, #0x2
  20120c:	7100001f 	cmp	w0, #0x0
  201210:	54ffff60 	b.eq	2011fc <rk_uart_sendbyte+0xc>
  201214:	d2bfe340 	mov	x0, #0xff1a0000            	// #4279894016
  201218:	39403fe1 	ldrb	w1, [sp,#15]
  20121c:	b9000001 	str	w1, [x0]
  201220:	d503201f 	nop
  201224:	910043ff 	add	sp, sp, #0x10
  201228:	d65f03c0 	ret

000000000020122c <rk_uart_sendstring>:
  20122c:	a9be7bfd 	stp	x29, x30, [sp,#-32]!
  201230:	910003fd 	mov	x29, sp
  201234:	f9000fa0 	str	x0, [x29,#24]
  201238:	14000006 	b	201250 <rk_uart_sendstring+0x24>
  20123c:	f9400fa0 	ldr	x0, [x29,#24]
  201240:	91000401 	add	x1, x0, #0x1
  201244:	f9000fa1 	str	x1, [x29,#24]
  201248:	39400000 	ldrb	w0, [x0]
  20124c:	97ffffe9 	bl	2011f0 <rk_uart_sendbyte>
  201250:	f9400fa0 	ldr	x0, [x29,#24]
  201254:	39400000 	ldrb	w0, [x0]
  201258:	7100001f 	cmp	w0, #0x0
  20125c:	54ffff01 	b.ne	20123c <rk_uart_sendstring+0x10>
  201260:	d503201f 	nop
  201264:	a8c27bfd 	ldp	x29, x30, [sp],#32
  201268:	d65f03c0 	ret

000000000020126c <rk_uart_sendhex>:
  20126c:	a9bb7bfd 	stp	x29, x30, [sp,#-80]!
  201270:	910003fd 	mov	x29, sp
  201274:	b9001fa0 	str	w0, [x29,#28]
  201278:	b9004fbf 	str	wzr, [x29,#76]
  20127c:	1400000d 	b	2012b0 <rk_uart_sendhex+0x44>
  201280:	b9401fa0 	ldr	w0, [x29,#28]
  201284:	12000c02 	and	w2, w0, #0xf
  201288:	b9804fa0 	ldrsw	x0, [x29,#76]
  20128c:	d37ef400 	lsl	x0, x0, #2
  201290:	9100a3a1 	add	x1, x29, #0x28
  201294:	b8206822 	str	w2, [x1,x0]
  201298:	b9401fa0 	ldr	w0, [x29,#28]
  20129c:	53047c00 	lsr	w0, w0, #4
  2012a0:	b9001fa0 	str	w0, [x29,#28]
  2012a4:	b9404fa0 	ldr	w0, [x29,#76]
  2012a8:	11000400 	add	w0, w0, #0x1
  2012ac:	b9004fa0 	str	w0, [x29,#76]
  2012b0:	b9404fa0 	ldr	w0, [x29,#76]
  2012b4:	71001c1f 	cmp	w0, #0x7
  2012b8:	54fffe4d 	b.le	201280 <rk_uart_sendhex+0x14>
  2012bc:	90000000 	adrp	x0, 201000 <led_delay+0x3c>
  2012c0:	912c2000 	add	x0, x0, #0xb08
  2012c4:	97ffffda 	bl	20122c <rk_uart_sendstring>
  2012c8:	528000e0 	mov	w0, #0x7                   	// #7
  2012cc:	b9004fa0 	str	w0, [x29,#76]
  2012d0:	14000027 	b	20136c <rk_uart_sendhex+0x100>
  2012d4:	b9804fa0 	ldrsw	x0, [x29,#76]
  2012d8:	d37ef400 	lsl	x0, x0, #2
  2012dc:	9100a3a1 	add	x1, x29, #0x28
  2012e0:	b8606820 	ldr	w0, [x1,x0]
  2012e4:	7100241f 	cmp	w0, #0x9
  2012e8:	54000148 	b.hi	201310 <rk_uart_sendhex+0xa4>
  2012ec:	b9804fa0 	ldrsw	x0, [x29,#76]
  2012f0:	d37ef400 	lsl	x0, x0, #2
  2012f4:	9100a3a1 	add	x1, x29, #0x28
  2012f8:	b8606820 	ldr	w0, [x1,x0]
  2012fc:	12001c00 	and	w0, w0, #0xff
  201300:	1100c000 	add	w0, w0, #0x30
  201304:	12001c00 	and	w0, w0, #0xff
  201308:	97ffffba 	bl	2011f0 <rk_uart_sendbyte>
  20130c:	14000015 	b	201360 <rk_uart_sendhex+0xf4>
  201310:	b9804fa0 	ldrsw	x0, [x29,#76]
  201314:	d37ef400 	lsl	x0, x0, #2
  201318:	9100a3a1 	add	x1, x29, #0x28
  20131c:	b8606820 	ldr	w0, [x1,x0]
  201320:	7100241f 	cmp	w0, #0x9
  201324:	540001e9 	b.ls	201360 <rk_uart_sendhex+0xf4>
  201328:	b9804fa0 	ldrsw	x0, [x29,#76]
  20132c:	d37ef400 	lsl	x0, x0, #2
  201330:	9100a3a1 	add	x1, x29, #0x28
  201334:	b8606820 	ldr	w0, [x1,x0]
  201338:	71003c1f 	cmp	w0, #0xf
  20133c:	54000128 	b.hi	201360 <rk_uart_sendhex+0xf4>
  201340:	b9804fa0 	ldrsw	x0, [x29,#76]
  201344:	d37ef400 	lsl	x0, x0, #2
  201348:	9100a3a1 	add	x1, x29, #0x28
  20134c:	b8606820 	ldr	w0, [x1,x0]
  201350:	12001c00 	and	w0, w0, #0xff
  201354:	1100dc00 	add	w0, w0, #0x37
  201358:	12001c00 	and	w0, w0, #0xff
  20135c:	97ffffa5 	bl	2011f0 <rk_uart_sendbyte>
  201360:	b9404fa0 	ldr	w0, [x29,#76]
  201364:	51000400 	sub	w0, w0, #0x1
  201368:	b9004fa0 	str	w0, [x29,#76]
  20136c:	b9404fa0 	ldr	w0, [x29,#76]
  201370:	7100001f 	cmp	w0, #0x0
  201374:	54fffb0a 	b.ge	2012d4 <rk_uart_sendhex+0x68>
  201378:	d503201f 	nop
  20137c:	a8c57bfd 	ldp	x29, x30, [sp],#80
  201380:	d65f03c0 	ret

0000000000201384 <outc>:
  201384:	a9be7bfd 	stp	x29, x30, [sp,#-32]!
  201388:	910003fd 	mov	x29, sp
  20138c:	b9001fa0 	str	w0, [x29,#28]
  201390:	b9401fa0 	ldr	w0, [x29,#28]
  201394:	12001c00 	and	w0, w0, #0xff
  201398:	97ffff96 	bl	2011f0 <rk_uart_sendbyte>
  20139c:	52800000 	mov	w0, #0x0                   	// #0
  2013a0:	a8c27bfd 	ldp	x29, x30, [sp],#32
  2013a4:	d65f03c0 	ret

00000000002013a8 <outs>:
  2013a8:	a9be7bfd 	stp	x29, x30, [sp,#-32]!
  2013ac:	910003fd 	mov	x29, sp
  2013b0:	f9000fa0 	str	x0, [x29,#24]
  2013b4:	14000006 	b	2013cc <outs+0x24>
  2013b8:	f9400fa0 	ldr	x0, [x29,#24]
  2013bc:	91000401 	add	x1, x0, #0x1
  2013c0:	f9000fa1 	str	x1, [x29,#24]
  2013c4:	39400000 	ldrb	w0, [x0]
  2013c8:	97ffff8a 	bl	2011f0 <rk_uart_sendbyte>
  2013cc:	f9400fa0 	ldr	x0, [x29,#24]
  2013d0:	39400000 	ldrb	w0, [x0]
  2013d4:	7100001f 	cmp	w0, #0x0
  2013d8:	54ffff01 	b.ne	2013b8 <outs+0x10>
  2013dc:	52800000 	mov	w0, #0x0                   	// #0
  2013e0:	a8c27bfd 	ldp	x29, x30, [sp],#32
  2013e4:	d65f03c0 	ret

00000000002013e8 <out_num>:
  2013e8:	a9b77bfd 	stp	x29, x30, [sp,#-144]!
  2013ec:	910003fd 	mov	x29, sp
  2013f0:	f90017a0 	str	x0, [x29,#40]
  2013f4:	b90027a1 	str	w1, [x29,#36]
  2013f8:	39008fa2 	strb	w2, [x29,#35]
  2013fc:	b9001fa3 	str	w3, [x29,#28]
  201400:	f90047bf 	str	xzr, [x29,#136]
  201404:	9100e3a0 	add	x0, x29, #0x38
  201408:	91010000 	add	x0, x0, #0x40
  20140c:	f90043a0 	str	x0, [x29,#128]
  201410:	b9007fbf 	str	wzr, [x29,#124]
  201414:	b9007bbf 	str	wzr, [x29,#120]
  201418:	f94043a0 	ldr	x0, [x29,#128]
  20141c:	d1000400 	sub	x0, x0, #0x1
  201420:	f90043a0 	str	x0, [x29,#128]
  201424:	f94043a0 	ldr	x0, [x29,#128]
  201428:	3900001f 	strb	wzr, [x0]
  20142c:	f94017a0 	ldr	x0, [x29,#40]
  201430:	f100001f 	cmp	x0, #0x0
  201434:	540000aa 	b.ge	201448 <out_num+0x60>
  201438:	f94017a0 	ldr	x0, [x29,#40]
  20143c:	cb0003e0 	neg	x0, x0
  201440:	f90047a0 	str	x0, [x29,#136]
  201444:	14000003 	b	201450 <out_num+0x68>
  201448:	f94017a0 	ldr	x0, [x29,#40]
  20144c:	f90047a0 	str	x0, [x29,#136]
  201450:	f94043a0 	ldr	x0, [x29,#128]
  201454:	d1000400 	sub	x0, x0, #0x1
  201458:	f90043a0 	str	x0, [x29,#128]
  20145c:	b98027a1 	ldrsw	x1, [x29,#36]
  201460:	f94047a0 	ldr	x0, [x29,#136]
  201464:	9ac10802 	udiv	x2, x0, x1
  201468:	9b017c41 	mul	x1, x2, x1
  20146c:	cb010000 	sub	x0, x0, x1
  201470:	90000001 	adrp	x1, 201000 <led_delay+0x3c>
  201474:	91306021 	add	x1, x1, #0xc18
  201478:	38606821 	ldrb	w1, [x1,x0]
  20147c:	f94043a0 	ldr	x0, [x29,#128]
  201480:	39000001 	strb	w1, [x0]
  201484:	b9407fa0 	ldr	w0, [x29,#124]
  201488:	11000400 	add	w0, w0, #0x1
  20148c:	b9007fa0 	str	w0, [x29,#124]
  201490:	b98027a0 	ldrsw	x0, [x29,#36]
  201494:	f94047a1 	ldr	x1, [x29,#136]
  201498:	9ac00820 	udiv	x0, x1, x0
  20149c:	f90047a0 	str	x0, [x29,#136]
  2014a0:	f94047a0 	ldr	x0, [x29,#136]
  2014a4:	f100001f 	cmp	x0, #0x0
  2014a8:	54fffd41 	b.ne	201450 <out_num+0x68>
  2014ac:	b9401fa0 	ldr	w0, [x29,#28]
  2014b0:	7100001f 	cmp	w0, #0x0
  2014b4:	540002c0 	b.eq	20150c <out_num+0x124>
  2014b8:	b9407fa1 	ldr	w1, [x29,#124]
  2014bc:	b9401fa0 	ldr	w0, [x29,#28]
  2014c0:	6b00003f 	cmp	w1, w0
  2014c4:	5400024a 	b.ge	20150c <out_num+0x124>
  2014c8:	b9401fa1 	ldr	w1, [x29,#28]
  2014cc:	b9407fa0 	ldr	w0, [x29,#124]
  2014d0:	4b000020 	sub	w0, w1, w0
  2014d4:	b9007ba0 	str	w0, [x29,#120]
  2014d8:	1400000a 	b	201500 <out_num+0x118>
  2014dc:	f94043a0 	ldr	x0, [x29,#128]
  2014e0:	d1000400 	sub	x0, x0, #0x1
  2014e4:	f90043a0 	str	x0, [x29,#128]
  2014e8:	f94043a0 	ldr	x0, [x29,#128]
  2014ec:	39408fa1 	ldrb	w1, [x29,#35]
  2014f0:	39000001 	strb	w1, [x0]
  2014f4:	b9407ba0 	ldr	w0, [x29,#120]
  2014f8:	51000400 	sub	w0, w0, #0x1
  2014fc:	b9007ba0 	str	w0, [x29,#120]
  201500:	b9407ba0 	ldr	w0, [x29,#120]
  201504:	7100001f 	cmp	w0, #0x0
  201508:	54fffea1 	b.ne	2014dc <out_num+0xf4>
  20150c:	f94017a0 	ldr	x0, [x29,#40]
  201510:	f100001f 	cmp	x0, #0x0
  201514:	540000ea 	b.ge	201530 <out_num+0x148>
  201518:	f94043a0 	ldr	x0, [x29,#128]
  20151c:	d1000400 	sub	x0, x0, #0x1
  201520:	f90043a0 	str	x0, [x29,#128]
  201524:	f94043a0 	ldr	x0, [x29,#128]
  201528:	528005a1 	mov	w1, #0x2d                  	// #45
  20152c:	39000001 	strb	w1, [x0]
  201530:	f94043a0 	ldr	x0, [x29,#128]
  201534:	97ffff9d 	bl	2013a8 <outs>
  201538:	a8c97bfd 	ldp	x29, x30, [sp],#144
  20153c:	d65f03c0 	ret

0000000000201540 <my_vprintf>:
  201540:	a9bc7bfd 	stp	x29, x30, [sp,#-64]!
  201544:	910003fd 	mov	x29, sp
  201548:	f9000bf3 	str	x19, [sp,#16]
  20154c:	f90017a0 	str	x0, [x29,#40]
  201550:	aa0103f3 	mov	x19, x1
  201554:	52800400 	mov	w0, #0x20                  	// #32
  201558:	3900ffa0 	strb	w0, [x29,#63]
  20155c:	b9003bbf 	str	wzr, [x29,#56]
  201560:	140000fb 	b	20194c <my_vprintf+0x40c>
  201564:	f94017a0 	ldr	x0, [x29,#40]
  201568:	39400000 	ldrb	w0, [x0]
  20156c:	7100941f 	cmp	w0, #0x25
  201570:	540000a0 	b.eq	201584 <my_vprintf+0x44>
  201574:	f94017a0 	ldr	x0, [x29,#40]
  201578:	39400000 	ldrb	w0, [x0]
  20157c:	97ffff82 	bl	201384 <outc>
  201580:	140000f0 	b	201940 <my_vprintf+0x400>
  201584:	52800400 	mov	w0, #0x20                  	// #32
  201588:	3900ffa0 	strb	w0, [x29,#63]
  20158c:	b9003bbf 	str	wzr, [x29,#56]
  201590:	f94017a0 	ldr	x0, [x29,#40]
  201594:	91000400 	add	x0, x0, #0x1
  201598:	f90017a0 	str	x0, [x29,#40]
  20159c:	f94017a0 	ldr	x0, [x29,#40]
  2015a0:	39400000 	ldrb	w0, [x0]
  2015a4:	7100c01f 	cmp	w0, #0x30
  2015a8:	540002c1 	b.ne	201600 <my_vprintf+0xc0>
  2015ac:	52800600 	mov	w0, #0x30                  	// #48
  2015b0:	3900ffa0 	strb	w0, [x29,#63]
  2015b4:	f94017a0 	ldr	x0, [x29,#40]
  2015b8:	91000400 	add	x0, x0, #0x1
  2015bc:	f90017a0 	str	x0, [x29,#40]
  2015c0:	14000010 	b	201600 <my_vprintf+0xc0>
  2015c4:	b9403ba1 	ldr	w1, [x29,#56]
  2015c8:	2a0103e0 	mov	w0, w1
  2015cc:	531e7400 	lsl	w0, w0, #2
  2015d0:	0b010000 	add	w0, w0, w1
  2015d4:	531f7800 	lsl	w0, w0, #1
  2015d8:	b9003ba0 	str	w0, [x29,#56]
  2015dc:	f94017a0 	ldr	x0, [x29,#40]
  2015e0:	39400000 	ldrb	w0, [x0]
  2015e4:	5100c000 	sub	w0, w0, #0x30
  2015e8:	b9403ba1 	ldr	w1, [x29,#56]
  2015ec:	0b000020 	add	w0, w1, w0
  2015f0:	b9003ba0 	str	w0, [x29,#56]
  2015f4:	f94017a0 	ldr	x0, [x29,#40]
  2015f8:	91000400 	add	x0, x0, #0x1
  2015fc:	f90017a0 	str	x0, [x29,#40]
  201600:	f94017a0 	ldr	x0, [x29,#40]
  201604:	39400000 	ldrb	w0, [x0]
  201608:	7100bc1f 	cmp	w0, #0x2f
  20160c:	540000a9 	b.ls	201620 <my_vprintf+0xe0>
  201610:	f94017a0 	ldr	x0, [x29,#40]
  201614:	39400000 	ldrb	w0, [x0]
  201618:	7100e41f 	cmp	w0, #0x39
  20161c:	54fffd49 	b.ls	2015c4 <my_vprintf+0x84>
  201620:	f94017a0 	ldr	x0, [x29,#40]
  201624:	39400000 	ldrb	w0, [x0]
  201628:	7101bc1f 	cmp	w0, #0x6f
  20162c:	540005c0 	b.eq	2016e4 <my_vprintf+0x1a4>
  201630:	7101bc1f 	cmp	w0, #0x6f
  201634:	540000cc 	b.gt	20164c <my_vprintf+0x10c>
  201638:	71018c1f 	cmp	w0, #0x63
  20163c:	540010e0 	b.eq	201858 <my_vprintf+0x318>
  201640:	7101901f 	cmp	w0, #0x64
  201644:	54000120 	b.eq	201668 <my_vprintf+0x128>
  201648:	140000ba 	b	201930 <my_vprintf+0x3f0>
  20164c:	7101d41f 	cmp	w0, #0x75
  201650:	54000880 	b.eq	201760 <my_vprintf+0x220>
  201654:	7101e01f 	cmp	w0, #0x78
  201658:	54000c20 	b.eq	2017dc <my_vprintf+0x29c>
  20165c:	7101cc1f 	cmp	w0, #0x73
  201660:	54001320 	b.eq	2018c4 <my_vprintf+0x384>
  201664:	140000b3 	b	201930 <my_vprintf+0x3f0>
  201668:	b9401a60 	ldr	w0, [x19,#24]
  20166c:	f9400261 	ldr	x1, [x19]
  201670:	7100001f 	cmp	w0, #0x0
  201674:	540000eb 	b.lt	201690 <my_vprintf+0x150>
  201678:	aa0103e0 	mov	x0, x1
  20167c:	91002c00 	add	x0, x0, #0xb
  201680:	927df000 	and	x0, x0, #0xfffffffffffffff8
  201684:	f9000260 	str	x0, [x19]
  201688:	aa0103e0 	mov	x0, x1
  20168c:	1400000f 	b	2016c8 <my_vprintf+0x188>
  201690:	11002002 	add	w2, w0, #0x8
  201694:	b9001a62 	str	w2, [x19,#24]
  201698:	b9401a62 	ldr	w2, [x19,#24]
  20169c:	7100005f 	cmp	w2, #0x0
  2016a0:	540000ed 	b.le	2016bc <my_vprintf+0x17c>
  2016a4:	aa0103e0 	mov	x0, x1
  2016a8:	91002c00 	add	x0, x0, #0xb
  2016ac:	927df000 	and	x0, x0, #0xfffffffffffffff8
  2016b0:	f9000260 	str	x0, [x19]
  2016b4:	aa0103e0 	mov	x0, x1
  2016b8:	14000004 	b	2016c8 <my_vprintf+0x188>
  2016bc:	f9400661 	ldr	x1, [x19,#8]
  2016c0:	93407c00 	sxtw	x0, w0
  2016c4:	8b000020 	add	x0, x1, x0
  2016c8:	b9400000 	ldr	w0, [x0]
  2016cc:	93407c00 	sxtw	x0, w0
  2016d0:	b9403ba3 	ldr	w3, [x29,#56]
  2016d4:	3940ffa2 	ldrb	w2, [x29,#63]
  2016d8:	52800141 	mov	w1, #0xa                   	// #10
  2016dc:	97ffff43 	bl	2013e8 <out_num>
  2016e0:	14000098 	b	201940 <my_vprintf+0x400>
  2016e4:	b9401a60 	ldr	w0, [x19,#24]
  2016e8:	f9400261 	ldr	x1, [x19]
  2016ec:	7100001f 	cmp	w0, #0x0
  2016f0:	540000eb 	b.lt	20170c <my_vprintf+0x1cc>
  2016f4:	aa0103e0 	mov	x0, x1
  2016f8:	91002c00 	add	x0, x0, #0xb
  2016fc:	927df000 	and	x0, x0, #0xfffffffffffffff8
  201700:	f9000260 	str	x0, [x19]
  201704:	aa0103e0 	mov	x0, x1
  201708:	1400000f 	b	201744 <my_vprintf+0x204>
  20170c:	11002002 	add	w2, w0, #0x8
  201710:	b9001a62 	str	w2, [x19,#24]
  201714:	b9401a62 	ldr	w2, [x19,#24]
  201718:	7100005f 	cmp	w2, #0x0
  20171c:	540000ed 	b.le	201738 <my_vprintf+0x1f8>
  201720:	aa0103e0 	mov	x0, x1
  201724:	91002c00 	add	x0, x0, #0xb
  201728:	927df000 	and	x0, x0, #0xfffffffffffffff8
  20172c:	f9000260 	str	x0, [x19]
  201730:	aa0103e0 	mov	x0, x1
  201734:	14000004 	b	201744 <my_vprintf+0x204>
  201738:	f9400661 	ldr	x1, [x19,#8]
  20173c:	93407c00 	sxtw	x0, w0
  201740:	8b000020 	add	x0, x1, x0
  201744:	b9400000 	ldr	w0, [x0]
  201748:	2a0003e0 	mov	w0, w0
  20174c:	b9403ba3 	ldr	w3, [x29,#56]
  201750:	3940ffa2 	ldrb	w2, [x29,#63]
  201754:	52800101 	mov	w1, #0x8                   	// #8
  201758:	97ffff24 	bl	2013e8 <out_num>
  20175c:	14000079 	b	201940 <my_vprintf+0x400>
  201760:	b9401a60 	ldr	w0, [x19,#24]
  201764:	f9400261 	ldr	x1, [x19]
  201768:	7100001f 	cmp	w0, #0x0
  20176c:	540000eb 	b.lt	201788 <my_vprintf+0x248>
  201770:	aa0103e0 	mov	x0, x1
  201774:	91002c00 	add	x0, x0, #0xb
  201778:	927df000 	and	x0, x0, #0xfffffffffffffff8
  20177c:	f9000260 	str	x0, [x19]
  201780:	aa0103e0 	mov	x0, x1
  201784:	1400000f 	b	2017c0 <my_vprintf+0x280>
  201788:	11002002 	add	w2, w0, #0x8
  20178c:	b9001a62 	str	w2, [x19,#24]
  201790:	b9401a62 	ldr	w2, [x19,#24]
  201794:	7100005f 	cmp	w2, #0x0
  201798:	540000ed 	b.le	2017b4 <my_vprintf+0x274>
  20179c:	aa0103e0 	mov	x0, x1
  2017a0:	91002c00 	add	x0, x0, #0xb
  2017a4:	927df000 	and	x0, x0, #0xfffffffffffffff8
  2017a8:	f9000260 	str	x0, [x19]
  2017ac:	aa0103e0 	mov	x0, x1
  2017b0:	14000004 	b	2017c0 <my_vprintf+0x280>
  2017b4:	f9400661 	ldr	x1, [x19,#8]
  2017b8:	93407c00 	sxtw	x0, w0
  2017bc:	8b000020 	add	x0, x1, x0
  2017c0:	b9400000 	ldr	w0, [x0]
  2017c4:	2a0003e0 	mov	w0, w0
  2017c8:	b9403ba3 	ldr	w3, [x29,#56]
  2017cc:	3940ffa2 	ldrb	w2, [x29,#63]
  2017d0:	52800141 	mov	w1, #0xa                   	// #10
  2017d4:	97ffff05 	bl	2013e8 <out_num>
  2017d8:	1400005a 	b	201940 <my_vprintf+0x400>
  2017dc:	b9401a60 	ldr	w0, [x19,#24]
  2017e0:	f9400261 	ldr	x1, [x19]
  2017e4:	7100001f 	cmp	w0, #0x0
  2017e8:	540000eb 	b.lt	201804 <my_vprintf+0x2c4>
  2017ec:	aa0103e0 	mov	x0, x1
  2017f0:	91002c00 	add	x0, x0, #0xb
  2017f4:	927df000 	and	x0, x0, #0xfffffffffffffff8
  2017f8:	f9000260 	str	x0, [x19]
  2017fc:	aa0103e0 	mov	x0, x1
  201800:	1400000f 	b	20183c <my_vprintf+0x2fc>
  201804:	11002002 	add	w2, w0, #0x8
  201808:	b9001a62 	str	w2, [x19,#24]
  20180c:	b9401a62 	ldr	w2, [x19,#24]
  201810:	7100005f 	cmp	w2, #0x0
  201814:	540000ed 	b.le	201830 <my_vprintf+0x2f0>
  201818:	aa0103e0 	mov	x0, x1
  20181c:	91002c00 	add	x0, x0, #0xb
  201820:	927df000 	and	x0, x0, #0xfffffffffffffff8
  201824:	f9000260 	str	x0, [x19]
  201828:	aa0103e0 	mov	x0, x1
  20182c:	14000004 	b	20183c <my_vprintf+0x2fc>
  201830:	f9400661 	ldr	x1, [x19,#8]
  201834:	93407c00 	sxtw	x0, w0
  201838:	8b000020 	add	x0, x1, x0
  20183c:	b9400000 	ldr	w0, [x0]
  201840:	2a0003e0 	mov	w0, w0
  201844:	b9403ba3 	ldr	w3, [x29,#56]
  201848:	3940ffa2 	ldrb	w2, [x29,#63]
  20184c:	52800201 	mov	w1, #0x10                  	// #16
  201850:	97fffee6 	bl	2013e8 <out_num>
  201854:	1400003b 	b	201940 <my_vprintf+0x400>
  201858:	b9401a60 	ldr	w0, [x19,#24]
  20185c:	f9400261 	ldr	x1, [x19]
  201860:	7100001f 	cmp	w0, #0x0
  201864:	540000eb 	b.lt	201880 <my_vprintf+0x340>
  201868:	aa0103e0 	mov	x0, x1
  20186c:	91002c00 	add	x0, x0, #0xb
  201870:	927df000 	and	x0, x0, #0xfffffffffffffff8
  201874:	f9000260 	str	x0, [x19]
  201878:	aa0103e0 	mov	x0, x1
  20187c:	1400000f 	b	2018b8 <my_vprintf+0x378>
  201880:	11002002 	add	w2, w0, #0x8
  201884:	b9001a62 	str	w2, [x19,#24]
  201888:	b9401a62 	ldr	w2, [x19,#24]
  20188c:	7100005f 	cmp	w2, #0x0
  201890:	540000ed 	b.le	2018ac <my_vprintf+0x36c>
  201894:	aa0103e0 	mov	x0, x1
  201898:	91002c00 	add	x0, x0, #0xb
  20189c:	927df000 	and	x0, x0, #0xfffffffffffffff8
  2018a0:	f9000260 	str	x0, [x19]
  2018a4:	aa0103e0 	mov	x0, x1
  2018a8:	14000004 	b	2018b8 <my_vprintf+0x378>
  2018ac:	f9400661 	ldr	x1, [x19,#8]
  2018b0:	93407c00 	sxtw	x0, w0
  2018b4:	8b000020 	add	x0, x1, x0
  2018b8:	b9400000 	ldr	w0, [x0]
  2018bc:	97fffeb2 	bl	201384 <outc>
  2018c0:	14000020 	b	201940 <my_vprintf+0x400>
  2018c4:	b9401a60 	ldr	w0, [x19,#24]
  2018c8:	f9400261 	ldr	x1, [x19]
  2018cc:	7100001f 	cmp	w0, #0x0
  2018d0:	540000eb 	b.lt	2018ec <my_vprintf+0x3ac>
  2018d4:	aa0103e0 	mov	x0, x1
  2018d8:	91003c00 	add	x0, x0, #0xf
  2018dc:	927df000 	and	x0, x0, #0xfffffffffffffff8
  2018e0:	f9000260 	str	x0, [x19]
  2018e4:	aa0103e0 	mov	x0, x1
  2018e8:	1400000f 	b	201924 <my_vprintf+0x3e4>
  2018ec:	11002002 	add	w2, w0, #0x8
  2018f0:	b9001a62 	str	w2, [x19,#24]
  2018f4:	b9401a62 	ldr	w2, [x19,#24]
  2018f8:	7100005f 	cmp	w2, #0x0
  2018fc:	540000ed 	b.le	201918 <my_vprintf+0x3d8>
  201900:	aa0103e0 	mov	x0, x1
  201904:	91003c00 	add	x0, x0, #0xf
  201908:	927df000 	and	x0, x0, #0xfffffffffffffff8
  20190c:	f9000260 	str	x0, [x19]
  201910:	aa0103e0 	mov	x0, x1
  201914:	14000004 	b	201924 <my_vprintf+0x3e4>
  201918:	f9400661 	ldr	x1, [x19,#8]
  20191c:	93407c00 	sxtw	x0, w0
  201920:	8b000020 	add	x0, x1, x0
  201924:	f9400000 	ldr	x0, [x0]
  201928:	97fffea0 	bl	2013a8 <outs>
  20192c:	14000005 	b	201940 <my_vprintf+0x400>
  201930:	f94017a0 	ldr	x0, [x29,#40]
  201934:	39400000 	ldrb	w0, [x0]
  201938:	97fffe93 	bl	201384 <outc>
  20193c:	d503201f 	nop
  201940:	f94017a0 	ldr	x0, [x29,#40]
  201944:	91000400 	add	x0, x0, #0x1
  201948:	f90017a0 	str	x0, [x29,#40]
  20194c:	f94017a0 	ldr	x0, [x29,#40]
  201950:	39400000 	ldrb	w0, [x0]
  201954:	7100001f 	cmp	w0, #0x0
  201958:	54ffe061 	b.ne	201564 <my_vprintf+0x24>
  20195c:	52800000 	mov	w0, #0x0                   	// #0
  201960:	f9400bf3 	ldr	x19, [sp,#16]
  201964:	a8c47bfd 	ldp	x29, x30, [sp],#64
  201968:	d65f03c0 	ret

000000000020196c <my_printf>:
  20196c:	a9ae7bfd 	stp	x29, x30, [sp,#-288]!
  201970:	910003fd 	mov	x29, sp
  201974:	f9001fa0 	str	x0, [x29,#56]
  201978:	f90077a1 	str	x1, [x29,#232]
  20197c:	f9007ba2 	str	x2, [x29,#240]
  201980:	f9007fa3 	str	x3, [x29,#248]
  201984:	f90083a4 	str	x4, [x29,#256]
  201988:	f90087a5 	str	x5, [x29,#264]
  20198c:	f9008ba6 	str	x6, [x29,#272]
  201990:	f9008fa7 	str	x7, [x29,#280]
  201994:	3d801ba0 	str	q0, [x29,#96]
  201998:	3d801fa1 	str	q1, [x29,#112]
  20199c:	3d8023a2 	str	q2, [x29,#128]
  2019a0:	3d8027a3 	str	q3, [x29,#144]
  2019a4:	3d802ba4 	str	q4, [x29,#160]
  2019a8:	3d802fa5 	str	q5, [x29,#176]
  2019ac:	3d8033a6 	str	q6, [x29,#192]
  2019b0:	3d8037a7 	str	q7, [x29,#208]
  2019b4:	910483a0 	add	x0, x29, #0x120
  2019b8:	f90023a0 	str	x0, [x29,#64]
  2019bc:	910483a0 	add	x0, x29, #0x120
  2019c0:	f90027a0 	str	x0, [x29,#72]
  2019c4:	910383a0 	add	x0, x29, #0xe0
  2019c8:	f9002ba0 	str	x0, [x29,#80]
  2019cc:	128006e0 	mov	w0, #0xffffffc8            	// #-56
  2019d0:	b9005ba0 	str	w0, [x29,#88]
  2019d4:	12800fe0 	mov	w0, #0xffffff80            	// #-128
  2019d8:	b9005fa0 	str	w0, [x29,#92]
  2019dc:	910043a2 	add	x2, x29, #0x10
  2019e0:	910103a3 	add	x3, x29, #0x40
  2019e4:	a9400460 	ldp	x0, x1, [x3]
  2019e8:	a9000440 	stp	x0, x1, [x2]
  2019ec:	a9410460 	ldp	x0, x1, [x3,#16]
  2019f0:	a9010440 	stp	x0, x1, [x2,#16]
  2019f4:	910043a0 	add	x0, x29, #0x10
  2019f8:	aa0003e1 	mov	x1, x0
  2019fc:	f9401fa0 	ldr	x0, [x29,#56]
  201a00:	97fffed0 	bl	201540 <my_vprintf>
  201a04:	52800000 	mov	w0, #0x0                   	// #0
  201a08:	a8d27bfd 	ldp	x29, x30, [sp],#288
  201a0c:	d65f03c0 	ret

0000000000201a10 <printf_test>:
  201a10:	a9bf7bfd 	stp	x29, x30, [sp,#-16]!
  201a14:	910003fd 	mov	x29, sp
  201a18:	90000000 	adrp	x0, 201000 <led_delay+0x3c>
  201a1c:	912c4000 	add	x0, x0, #0xb10
  201a20:	97ffffd3 	bl	20196c <my_printf>
  201a24:	90000000 	adrp	x0, 201000 <led_delay+0x3c>
  201a28:	912ce000 	add	x0, x0, #0xb38
  201a2c:	52800d43 	mov	w3, #0x6a                  	// #106
  201a30:	52800d42 	mov	w2, #0x6a                  	// #106
  201a34:	52800f41 	mov	w1, #0x7a                  	// #122
  201a38:	97ffffcd 	bl	20196c <my_printf>
  201a3c:	90000000 	adrp	x0, 201000 <led_delay+0x3c>
  201a40:	912d8000 	add	x0, x0, #0xb60
  201a44:	529c4801 	mov	w1, #0xe240                	// #57920
  201a48:	72a00021 	movk	w1, #0x1, lsl #16
  201a4c:	97ffffc8 	bl	20196c <my_printf>
  201a50:	90000000 	adrp	x0, 201000 <led_delay+0x3c>
  201a54:	912e0000 	add	x0, x0, #0xb80
  201a58:	5283b801 	mov	w1, #0x1dc0                	// #7616
  201a5c:	72bfffc1 	movk	w1, #0xfffe, lsl #16
  201a60:	97ffffc3 	bl	20196c <my_printf>
  201a64:	90000000 	adrp	x0, 201000 <led_delay+0x3c>
  201a68:	912e8000 	add	x0, x0, #0xba0
  201a6c:	52868ac1 	mov	w1, #0x3456                	// #13398
  201a70:	72a00241 	movk	w1, #0x12, lsl #16
  201a74:	97ffffbe 	bl	20196c <my_printf>
  201a78:	90000000 	adrp	x0, 201000 <led_delay+0x3c>
  201a7c:	912f0000 	add	x0, x0, #0xbc0
  201a80:	52868ac1 	mov	w1, #0x3456                	// #13398
  201a84:	72a00241 	movk	w1, #0x12, lsl #16
  201a88:	97ffffb9 	bl	20196c <my_printf>
  201a8c:	90000000 	adrp	x0, 201000 <led_delay+0x3c>
  201a90:	912f8001 	add	x1, x0, #0xbe0
  201a94:	90000000 	adrp	x0, 201000 <led_delay+0x3c>
  201a98:	912fe000 	add	x0, x0, #0xbf8
  201a9c:	97ffffb4 	bl	20196c <my_printf>
  201aa0:	52800000 	mov	w0, #0x0                   	// #0
  201aa4:	a8c17bfd 	ldp	x29, x30, [sp],#16
  201aa8:	d65f03c0 	ret

0000000000201aac <puts>:
  201aac:	a9be7bfd 	stp	x29, x30, [sp,#-32]!
  201ab0:	910003fd 	mov	x29, sp
  201ab4:	f9000fa0 	str	x0, [x29,#24]
  201ab8:	14000006 	b	201ad0 <puts+0x24>
  201abc:	f9400fa0 	ldr	x0, [x29,#24]
  201ac0:	91000401 	add	x1, x0, #0x1
  201ac4:	f9000fa1 	str	x1, [x29,#24]
  201ac8:	39400000 	ldrb	w0, [x0]
  201acc:	97fffdc9 	bl	2011f0 <rk_uart_sendbyte>
  201ad0:	f9400fa0 	ldr	x0, [x29,#24]
  201ad4:	39400000 	ldrb	w0, [x0]
  201ad8:	7100001f 	cmp	w0, #0x0
  201adc:	54ffff01 	b.ne	201abc <puts+0x10>
  201ae0:	d503201f 	nop
  201ae4:	a8c27bfd 	ldp	x29, x30, [sp],#32
  201ae8:	d65f03c0 	ret
