
u_boot_elf：     文件格式 elf64-littleaarch64


Disassembly of section .text:

0000000000200000 <__image_copy_start>:
  200000:	1400000a 	b	200028 <reset>
  200004:	d503201f 	nop

0000000000200008 <_TEXT_BASE>:
  200008:	00200000 	.word	0x00200000
  20000c:	00000000 	.word	0x00000000

0000000000200010 <_end_ofs>:
  200010:	00000fe8 	.word	0x00000fe8
  200014:	00000000 	.word	0x00000000

0000000000200018 <_bss_start_ofs>:
  200018:	00000fe8 	.word	0x00000fe8
  20001c:	00000000 	.word	0x00000000

0000000000200020 <_bss_end_ofs>:
  200020:	00001008 	.word	0x00001008
  200024:	00000000 	.word	0x00000000

0000000000200028 <reset>:
  200028:	1400004e 	b	200160 <save_boot_params>

000000000020002c <save_boot_params_ret>:
  20002c:	10003ea0 	adr	x0, 200800 <vectors>
  200030:	d5384241 	mrs	x1, currentel
  200034:	f100303f 	cmp	x1, #0xc
  200038:	540000a0 	b.eq	20004c <save_boot_params_ret+0x20>
  20003c:	f100203f 	cmp	x1, #0x8
  200040:	54000160 	b.eq	20006c <save_boot_params_ret+0x40>
  200044:	f100103f 	cmp	x1, #0x4
  200048:	540001a0 	b.eq	20007c <save_boot_params_ret+0x50>
  20004c:	d51ec000 	msr	vbar_el3, x0
  200050:	d53e1100 	mrs	x0, scr_el3
  200054:	b2400c00 	orr	x0, x0, #0xf
  200058:	d51e1100 	msr	scr_el3, x0
  20005c:	d51e115f 	msr	cptr_el3, xzr
  200060:	58006e40 	ldr	x0, 200e28 <hang+0x8>
  200064:	d51be000 	msr	cntfrq_el0, x0
  200068:	14000008 	b	200088 <save_boot_params_ret+0x5c>
  20006c:	d51cc000 	msr	vbar_el2, x0
  200070:	d2867fe0 	mov	x0, #0x33ff                	// #13311
  200074:	d51c1140 	msr	cptr_el2, x0
  200078:	14000004 	b	200088 <save_boot_params_ret+0x5c>
  20007c:	d518c000 	msr	vbar_el1, x0
  200080:	d2a00600 	mov	x0, #0x300000              	// #3145728
  200084:	d5181040 	msr	cpacr_el1, x0
  200088:	d5384241 	mrs	x1, currentel
  20008c:	f100303f 	cmp	x1, #0xc
  200090:	540000a0 	b.eq	2000a4 <save_boot_params_ret+0x78>
  200094:	f100203f 	cmp	x1, #0x8
  200098:	540000c0 	b.eq	2000b0 <save_boot_params_ret+0x84>
  20009c:	f100103f 	cmp	x1, #0x4
  2000a0:	54000080 	b.eq	2000b0 <save_boot_params_ret+0x84>
  2000a4:	d539f220 	mrs	x0, s3_1_c15_c2_1
  2000a8:	b27a0000 	orr	x0, x0, #0x40
  2000ac:	d519f220 	msr	s3_1_c15_c2_1, x0
  2000b0:	94000003 	bl	2000bc <apply_core_errata>
  2000b4:	9400000b 	bl	2000e0 <lowlevel_init>

00000000002000b8 <master_cpu>:
  2000b8:	9400030c 	bl	200ce8 <_main>

00000000002000bc <apply_core_errata>:
  2000bc:	aa1e03fd 	mov	x29, x30
  2000c0:	d5380000 	mrs	x0, midr_el1
  2000c4:	d344fc00 	lsr	x0, x0, #4
  2000c8:	92402c00 	and	x0, x0, #0xfff
  2000cc:	f1341c1f 	cmp	x0, #0xd07
  2000d0:	54000060 	b.eq	2000dc <apply_a57_core_errata>
  2000d4:	aa1d03fe 	mov	x30, x29
  2000d8:	d65f03c0 	ret

00000000002000dc <apply_a57_core_errata>:
  2000dc:	17fffffe 	b	2000d4 <apply_core_errata+0x18>

00000000002000e0 <lowlevel_init>:
  2000e0:	aa1e03fd 	mov	x29, x30
  2000e4:	58006a60 	ldr	x0, 200e30 <hang+0x10>
  2000e8:	9400001f 	bl	200164 <gic_init_secure>
  2000ec:	58006a60 	ldr	x0, 200e38 <hang+0x18>
  2000f0:	9400002a 	bl	200198 <gic_init_secure_percpu>
  2000f4:	d5384240 	mrs	x0, currentel
  2000f8:	f100201f 	cmp	x0, #0x8
  2000fc:	540000a1 	b.ne	200110 <end>
  200100:	d53c1109 	mrs	x9, hcr_el2
  200104:	b27d0929 	orr	x9, x9, #0x38
  200108:	b2650129 	orr	x9, x9, #0x8000000
  20010c:	d51c1109 	msr	hcr_el2, x9

0000000000200110 <end>:
  200110:	d503201f 	nop
  200114:	aa1d03fe 	mov	x30, x29
  200118:	d65f03c0 	ret

000000000020011c <smp_kick_all_cpus>:
  20011c:	580068a0 	ldr	x0, 200e30 <hang+0x10>
  200120:	14000056 	b	200278 <gic_kick_secondary_cpus>
  200124:	d65f03c0 	ret

0000000000200128 <c_runtime_cpu_setup>:
  200128:	100036c0 	adr	x0, 200800 <vectors>
  20012c:	d5384241 	mrs	x1, currentel
  200130:	f100303f 	cmp	x1, #0xc
  200134:	540000a0 	b.eq	200148 <c_runtime_cpu_setup+0x20>
  200138:	f100203f 	cmp	x1, #0x8
  20013c:	540000a0 	b.eq	200150 <c_runtime_cpu_setup+0x28>
  200140:	f100103f 	cmp	x1, #0x4
  200144:	540000a0 	b.eq	200158 <c_runtime_cpu_setup+0x30>
  200148:	d51ec000 	msr	vbar_el3, x0
  20014c:	14000004 	b	20015c <c_runtime_cpu_setup+0x34>
  200150:	d51cc000 	msr	vbar_el2, x0
  200154:	14000002 	b	20015c <c_runtime_cpu_setup+0x34>
  200158:	d518c000 	msr	vbar_el1, x0
  20015c:	d65f03c0 	ret

0000000000200160 <save_boot_params>:
  200160:	17ffffb3 	b	20002c <save_boot_params_ret>

0000000000200164 <gic_init_secure>:
  200164:	528006e9 	mov	w9, #0x37                  	// #55
  200168:	b9000009 	str	w9, [x0]
  20016c:	b9400409 	ldr	w9, [x0,#4]
  200170:	1200112a 	and	w10, w9, #0x1f
  200174:	3400010a 	cbz	w10, 200194 <gic_init_secure+0x30>
  200178:	9102100b 	add	x11, x0, #0x84
  20017c:	9134100c 	add	x12, x0, #0xd04
  200180:	12800009 	mov	w9, #0xffffffff            	// #-1
  200184:	b8004569 	str	w9, [x11],#4
  200188:	b800459f 	str	wzr, [x12],#4
  20018c:	5100054a 	sub	w10, w10, #0x1
  200190:	35ffffaa 	cbnz	w10, 200184 <gic_init_secure+0x20>
  200194:	d65f03c0 	ret

0000000000200198 <gic_init_secure_percpu>:
  200198:	d53800aa 	mrs	x10, mpidr_el1
  20019c:	d360fd49 	lsr	x9, x10, #32
  2001a0:	b3681d2a 	bfi	x10, x9, #24, #8
  2001a4:	aa0003e9 	mov	x9, x0
  2001a8:	f940052b 	ldr	x11, [x9,#8]
  2001ac:	d360fd6b 	lsr	x11, x11, #32
  2001b0:	6b0b015f 	cmp	w10, w11
  2001b4:	54000060 	b.eq	2001c0 <gic_init_secure_percpu+0x28>
  2001b8:	91408129 	add	x9, x9, #0x20, lsl #12
  2001bc:	17fffffb 	b	2001a8 <gic_init_secure_percpu+0x10>
  2001c0:	1280004a 	mov	w10, #0xfffffffd            	// #-3
  2001c4:	b940152b 	ldr	w11, [x9,#20]
  2001c8:	0a0a016b 	and	w11, w11, w10
  2001cc:	b900152b 	str	w11, [x9,#20]
  2001d0:	d5033e9f 	dsb	st
  2001d4:	d5033fdf 	isb
  2001d8:	b940152a 	ldr	w10, [x9,#20]
  2001dc:	3717ffea 	tbnz	w10, #2, 2001d8 <gic_init_secure_percpu+0x40>
  2001e0:	9140412a 	add	x10, x9, #0x10, lsl #12
  2001e4:	1280000b 	mov	w11, #0xffffffff            	// #-1
  2001e8:	b900814b 	str	w11, [x10,#128]
  2001ec:	b90d015f 	str	wzr, [x10,#3328]
  2001f0:	5280002b 	mov	w11, #0x1                   	// #1
  2001f4:	b901014b 	str	w11, [x10,#256]
  2001f8:	d5384240 	mrs	x0, currentel
  2001fc:	f100301f 	cmp	x0, #0xc
  200200:	540000a0 	b.eq	200214 <el3_sre>
  200204:	f100201f 	cmp	x0, #0x8
  200208:	540000e0 	b.eq	200224 <el2_sre>
  20020c:	f100101f 	cmp	x0, #0x4
  200210:	54000120 	b.eq	200234 <el1_sre>

0000000000200214 <el3_sre>:
  200214:	d53eccaa 	mrs	x10, s3_6_c12_c12_5
  200218:	b2400d4a 	orr	x10, x10, #0xf
  20021c:	d51eccaa 	msr	s3_6_c12_c12_5, x10
  200220:	d5033fdf 	isb

0000000000200224 <el2_sre>:
  200224:	d53cc9aa 	mrs	x10, s3_4_c12_c9_5
  200228:	b2400d4a 	orr	x10, x10, #0xf
  20022c:	d51cc9aa 	msr	s3_4_c12_c9_5, x10
  200230:	d5033fdf 	isb

0000000000200234 <el1_sre>:
  200234:	d5384240 	mrs	x0, currentel
  200238:	f100301f 	cmp	x0, #0xc
  20023c:	540000c1 	b.ne	200254 <el1_ctlr>

0000000000200240 <el3_ctlr>:
  200240:	d280006a 	mov	x10, #0x3                   	// #3
  200244:	d51eccea 	msr	s3_6_c12_c12_7, x10
  200248:	d5033fdf 	isb
  20024c:	d51ecc9f 	msr	s3_6_c12_c12_4, xzr
  200250:	d5033fdf 	isb

0000000000200254 <el1_ctlr>:
  200254:	d280006a 	mov	x10, #0x3                   	// #3
  200258:	d518ccea 	msr	s3_0_c12_c12_7, x10
  20025c:	d5033fdf 	isb
  200260:	d518cc9f 	msr	s3_0_c12_c12_4, xzr
  200264:	d5033fdf 	isb
  200268:	d2801e0a 	mov	x10, #0xf0                  	// #240
  20026c:	d518460a 	msr	s3_0_c4_c6_0, x10
  200270:	d5033fdf 	isb
  200274:	d65f03c0 	ret

0000000000200278 <gic_kick_secondary_cpus>:
  200278:	d2c02009 	mov	x9, #0x10000000000         	// #1099511627776
  20027c:	d518cbc9 	msr	s3_0_c12_c11_6, x9
  200280:	d5033fdf 	isb
  200284:	d65f03c0 	ret
  200288:	d503201f 	nop
  20028c:	d503201f 	nop
  200290:	d503201f 	nop
  200294:	d503201f 	nop
  200298:	d503201f 	nop
  20029c:	d503201f 	nop
  2002a0:	d503201f 	nop
  2002a4:	d503201f 	nop
  2002a8:	d503201f 	nop
  2002ac:	d503201f 	nop
  2002b0:	d503201f 	nop
  2002b4:	d503201f 	nop
  2002b8:	d503201f 	nop
  2002bc:	d503201f 	nop
  2002c0:	d503201f 	nop
  2002c4:	d503201f 	nop
  2002c8:	d503201f 	nop
  2002cc:	d503201f 	nop
  2002d0:	d503201f 	nop
  2002d4:	d503201f 	nop
  2002d8:	d503201f 	nop
  2002dc:	d503201f 	nop
  2002e0:	d503201f 	nop
  2002e4:	d503201f 	nop
  2002e8:	d503201f 	nop
  2002ec:	d503201f 	nop
  2002f0:	d503201f 	nop
  2002f4:	d503201f 	nop
  2002f8:	d503201f 	nop
  2002fc:	d503201f 	nop
  200300:	d503201f 	nop
  200304:	d503201f 	nop
  200308:	d503201f 	nop
  20030c:	d503201f 	nop
  200310:	d503201f 	nop
  200314:	d503201f 	nop
  200318:	d503201f 	nop
  20031c:	d503201f 	nop
  200320:	d503201f 	nop
  200324:	d503201f 	nop
  200328:	d503201f 	nop
  20032c:	d503201f 	nop
  200330:	d503201f 	nop
  200334:	d503201f 	nop
  200338:	d503201f 	nop
  20033c:	d503201f 	nop
  200340:	d503201f 	nop
  200344:	d503201f 	nop
  200348:	d503201f 	nop
  20034c:	d503201f 	nop
  200350:	d503201f 	nop
  200354:	d503201f 	nop
  200358:	d503201f 	nop
  20035c:	d503201f 	nop
  200360:	d503201f 	nop
  200364:	d503201f 	nop
  200368:	d503201f 	nop
  20036c:	d503201f 	nop
  200370:	d503201f 	nop
  200374:	d503201f 	nop
  200378:	d503201f 	nop
  20037c:	d503201f 	nop
  200380:	d503201f 	nop
  200384:	d503201f 	nop
  200388:	d503201f 	nop
  20038c:	d503201f 	nop
  200390:	d503201f 	nop
  200394:	d503201f 	nop
  200398:	d503201f 	nop
  20039c:	d503201f 	nop
  2003a0:	d503201f 	nop
  2003a4:	d503201f 	nop
  2003a8:	d503201f 	nop
  2003ac:	d503201f 	nop
  2003b0:	d503201f 	nop
  2003b4:	d503201f 	nop
  2003b8:	d503201f 	nop
  2003bc:	d503201f 	nop
  2003c0:	d503201f 	nop
  2003c4:	d503201f 	nop
  2003c8:	d503201f 	nop
  2003cc:	d503201f 	nop
  2003d0:	d503201f 	nop
  2003d4:	d503201f 	nop
  2003d8:	d503201f 	nop
  2003dc:	d503201f 	nop
  2003e0:	d503201f 	nop
  2003e4:	d503201f 	nop
  2003e8:	d503201f 	nop
  2003ec:	d503201f 	nop
  2003f0:	d503201f 	nop
  2003f4:	d503201f 	nop
  2003f8:	d503201f 	nop
  2003fc:	d503201f 	nop
  200400:	d503201f 	nop
  200404:	d503201f 	nop
  200408:	d503201f 	nop
  20040c:	d503201f 	nop
  200410:	d503201f 	nop
  200414:	d503201f 	nop
  200418:	d503201f 	nop
  20041c:	d503201f 	nop
  200420:	d503201f 	nop
  200424:	d503201f 	nop
  200428:	d503201f 	nop
  20042c:	d503201f 	nop
  200430:	d503201f 	nop
  200434:	d503201f 	nop
  200438:	d503201f 	nop
  20043c:	d503201f 	nop
  200440:	d503201f 	nop
  200444:	d503201f 	nop
  200448:	d503201f 	nop
  20044c:	d503201f 	nop
  200450:	d503201f 	nop
  200454:	d503201f 	nop
  200458:	d503201f 	nop
  20045c:	d503201f 	nop
  200460:	d503201f 	nop
  200464:	d503201f 	nop
  200468:	d503201f 	nop
  20046c:	d503201f 	nop
  200470:	d503201f 	nop
  200474:	d503201f 	nop
  200478:	d503201f 	nop
  20047c:	d503201f 	nop
  200480:	d503201f 	nop
  200484:	d503201f 	nop
  200488:	d503201f 	nop
  20048c:	d503201f 	nop
  200490:	d503201f 	nop
  200494:	d503201f 	nop
  200498:	d503201f 	nop
  20049c:	d503201f 	nop
  2004a0:	d503201f 	nop
  2004a4:	d503201f 	nop
  2004a8:	d503201f 	nop
  2004ac:	d503201f 	nop
  2004b0:	d503201f 	nop
  2004b4:	d503201f 	nop
  2004b8:	d503201f 	nop
  2004bc:	d503201f 	nop
  2004c0:	d503201f 	nop
  2004c4:	d503201f 	nop
  2004c8:	d503201f 	nop
  2004cc:	d503201f 	nop
  2004d0:	d503201f 	nop
  2004d4:	d503201f 	nop
  2004d8:	d503201f 	nop
  2004dc:	d503201f 	nop
  2004e0:	d503201f 	nop
  2004e4:	d503201f 	nop
  2004e8:	d503201f 	nop
  2004ec:	d503201f 	nop
  2004f0:	d503201f 	nop
  2004f4:	d503201f 	nop
  2004f8:	d503201f 	nop
  2004fc:	d503201f 	nop
  200500:	d503201f 	nop
  200504:	d503201f 	nop
  200508:	d503201f 	nop
  20050c:	d503201f 	nop
  200510:	d503201f 	nop
  200514:	d503201f 	nop
  200518:	d503201f 	nop
  20051c:	d503201f 	nop
  200520:	d503201f 	nop
  200524:	d503201f 	nop
  200528:	d503201f 	nop
  20052c:	d503201f 	nop
  200530:	d503201f 	nop
  200534:	d503201f 	nop
  200538:	d503201f 	nop
  20053c:	d503201f 	nop
  200540:	d503201f 	nop
  200544:	d503201f 	nop
  200548:	d503201f 	nop
  20054c:	d503201f 	nop
  200550:	d503201f 	nop
  200554:	d503201f 	nop
  200558:	d503201f 	nop
  20055c:	d503201f 	nop
  200560:	d503201f 	nop
  200564:	d503201f 	nop
  200568:	d503201f 	nop
  20056c:	d503201f 	nop
  200570:	d503201f 	nop
  200574:	d503201f 	nop
  200578:	d503201f 	nop
  20057c:	d503201f 	nop
  200580:	d503201f 	nop
  200584:	d503201f 	nop
  200588:	d503201f 	nop
  20058c:	d503201f 	nop
  200590:	d503201f 	nop
  200594:	d503201f 	nop
  200598:	d503201f 	nop
  20059c:	d503201f 	nop
  2005a0:	d503201f 	nop
  2005a4:	d503201f 	nop
  2005a8:	d503201f 	nop
  2005ac:	d503201f 	nop
  2005b0:	d503201f 	nop
  2005b4:	d503201f 	nop
  2005b8:	d503201f 	nop
  2005bc:	d503201f 	nop
  2005c0:	d503201f 	nop
  2005c4:	d503201f 	nop
  2005c8:	d503201f 	nop
  2005cc:	d503201f 	nop
  2005d0:	d503201f 	nop
  2005d4:	d503201f 	nop
  2005d8:	d503201f 	nop
  2005dc:	d503201f 	nop
  2005e0:	d503201f 	nop
  2005e4:	d503201f 	nop
  2005e8:	d503201f 	nop
  2005ec:	d503201f 	nop
  2005f0:	d503201f 	nop
  2005f4:	d503201f 	nop
  2005f8:	d503201f 	nop
  2005fc:	d503201f 	nop
  200600:	d503201f 	nop
  200604:	d503201f 	nop
  200608:	d503201f 	nop
  20060c:	d503201f 	nop
  200610:	d503201f 	nop
  200614:	d503201f 	nop
  200618:	d503201f 	nop
  20061c:	d503201f 	nop
  200620:	d503201f 	nop
  200624:	d503201f 	nop
  200628:	d503201f 	nop
  20062c:	d503201f 	nop
  200630:	d503201f 	nop
  200634:	d503201f 	nop
  200638:	d503201f 	nop
  20063c:	d503201f 	nop
  200640:	d503201f 	nop
  200644:	d503201f 	nop
  200648:	d503201f 	nop
  20064c:	d503201f 	nop
  200650:	d503201f 	nop
  200654:	d503201f 	nop
  200658:	d503201f 	nop
  20065c:	d503201f 	nop
  200660:	d503201f 	nop
  200664:	d503201f 	nop
  200668:	d503201f 	nop
  20066c:	d503201f 	nop
  200670:	d503201f 	nop
  200674:	d503201f 	nop
  200678:	d503201f 	nop
  20067c:	d503201f 	nop
  200680:	d503201f 	nop
  200684:	d503201f 	nop
  200688:	d503201f 	nop
  20068c:	d503201f 	nop
  200690:	d503201f 	nop
  200694:	d503201f 	nop
  200698:	d503201f 	nop
  20069c:	d503201f 	nop
  2006a0:	d503201f 	nop
  2006a4:	d503201f 	nop
  2006a8:	d503201f 	nop
  2006ac:	d503201f 	nop
  2006b0:	d503201f 	nop
  2006b4:	d503201f 	nop
  2006b8:	d503201f 	nop
  2006bc:	d503201f 	nop
  2006c0:	d503201f 	nop
  2006c4:	d503201f 	nop
  2006c8:	d503201f 	nop
  2006cc:	d503201f 	nop
  2006d0:	d503201f 	nop
  2006d4:	d503201f 	nop
  2006d8:	d503201f 	nop
  2006dc:	d503201f 	nop
  2006e0:	d503201f 	nop
  2006e4:	d503201f 	nop
  2006e8:	d503201f 	nop
  2006ec:	d503201f 	nop
  2006f0:	d503201f 	nop
  2006f4:	d503201f 	nop
  2006f8:	d503201f 	nop
  2006fc:	d503201f 	nop
  200700:	d503201f 	nop
  200704:	d503201f 	nop
  200708:	d503201f 	nop
  20070c:	d503201f 	nop
  200710:	d503201f 	nop
  200714:	d503201f 	nop
  200718:	d503201f 	nop
  20071c:	d503201f 	nop
  200720:	d503201f 	nop
  200724:	d503201f 	nop
  200728:	d503201f 	nop
  20072c:	d503201f 	nop
  200730:	d503201f 	nop
  200734:	d503201f 	nop
  200738:	d503201f 	nop
  20073c:	d503201f 	nop
  200740:	d503201f 	nop
  200744:	d503201f 	nop
  200748:	d503201f 	nop
  20074c:	d503201f 	nop
  200750:	d503201f 	nop
  200754:	d503201f 	nop
  200758:	d503201f 	nop
  20075c:	d503201f 	nop
  200760:	d503201f 	nop
  200764:	d503201f 	nop
  200768:	d503201f 	nop
  20076c:	d503201f 	nop
  200770:	d503201f 	nop
  200774:	d503201f 	nop
  200778:	d503201f 	nop
  20077c:	d503201f 	nop
  200780:	d503201f 	nop
  200784:	d503201f 	nop
  200788:	d503201f 	nop
  20078c:	d503201f 	nop
  200790:	d503201f 	nop
  200794:	d503201f 	nop
  200798:	d503201f 	nop
  20079c:	d503201f 	nop
  2007a0:	d503201f 	nop
  2007a4:	d503201f 	nop
  2007a8:	d503201f 	nop
  2007ac:	d503201f 	nop
  2007b0:	d503201f 	nop
  2007b4:	d503201f 	nop
  2007b8:	d503201f 	nop
  2007bc:	d503201f 	nop
  2007c0:	d503201f 	nop
  2007c4:	d503201f 	nop
  2007c8:	d503201f 	nop
  2007cc:	d503201f 	nop
  2007d0:	d503201f 	nop
  2007d4:	d503201f 	nop
  2007d8:	d503201f 	nop
  2007dc:	d503201f 	nop
  2007e0:	d503201f 	nop
  2007e4:	d503201f 	nop
  2007e8:	d503201f 	nop
  2007ec:	d503201f 	nop
  2007f0:	d503201f 	nop
  2007f4:	d503201f 	nop
  2007f8:	d503201f 	nop
  2007fc:	d503201f 	nop

0000000000200800 <vectors>:
  200800:	a9bf7bfd 	stp	x29, x30, [sp,#-16]!
  200804:	940000e2 	bl	200b8c <_exception_entry>
  200808:	1400011a 	b	200c70 <exception_exit>
  20080c:	d503201f 	nop
  200810:	d503201f 	nop
  200814:	d503201f 	nop
  200818:	d503201f 	nop
  20081c:	d503201f 	nop
  200820:	d503201f 	nop
  200824:	d503201f 	nop
  200828:	d503201f 	nop
  20082c:	d503201f 	nop
  200830:	d503201f 	nop
  200834:	d503201f 	nop
  200838:	d503201f 	nop
  20083c:	d503201f 	nop
  200840:	d503201f 	nop
  200844:	d503201f 	nop
  200848:	d503201f 	nop
  20084c:	d503201f 	nop
  200850:	d503201f 	nop
  200854:	d503201f 	nop
  200858:	d503201f 	nop
  20085c:	d503201f 	nop
  200860:	d503201f 	nop
  200864:	d503201f 	nop
  200868:	d503201f 	nop
  20086c:	d503201f 	nop
  200870:	d503201f 	nop
  200874:	d503201f 	nop
  200878:	d503201f 	nop
  20087c:	d503201f 	nop
  200880:	a9bf7bfd 	stp	x29, x30, [sp,#-16]!
  200884:	940000c2 	bl	200b8c <_exception_entry>
  200888:	140000fa 	b	200c70 <exception_exit>
  20088c:	d503201f 	nop
  200890:	d503201f 	nop
  200894:	d503201f 	nop
  200898:	d503201f 	nop
  20089c:	d503201f 	nop
  2008a0:	d503201f 	nop
  2008a4:	d503201f 	nop
  2008a8:	d503201f 	nop
  2008ac:	d503201f 	nop
  2008b0:	d503201f 	nop
  2008b4:	d503201f 	nop
  2008b8:	d503201f 	nop
  2008bc:	d503201f 	nop
  2008c0:	d503201f 	nop
  2008c4:	d503201f 	nop
  2008c8:	d503201f 	nop
  2008cc:	d503201f 	nop
  2008d0:	d503201f 	nop
  2008d4:	d503201f 	nop
  2008d8:	d503201f 	nop
  2008dc:	d503201f 	nop
  2008e0:	d503201f 	nop
  2008e4:	d503201f 	nop
  2008e8:	d503201f 	nop
  2008ec:	d503201f 	nop
  2008f0:	d503201f 	nop
  2008f4:	d503201f 	nop
  2008f8:	d503201f 	nop
  2008fc:	d503201f 	nop
  200900:	a9bf7bfd 	stp	x29, x30, [sp,#-16]!
  200904:	940000a2 	bl	200b8c <_exception_entry>
  200908:	140000da 	b	200c70 <exception_exit>
  20090c:	d503201f 	nop
  200910:	d503201f 	nop
  200914:	d503201f 	nop
  200918:	d503201f 	nop
  20091c:	d503201f 	nop
  200920:	d503201f 	nop
  200924:	d503201f 	nop
  200928:	d503201f 	nop
  20092c:	d503201f 	nop
  200930:	d503201f 	nop
  200934:	d503201f 	nop
  200938:	d503201f 	nop
  20093c:	d503201f 	nop
  200940:	d503201f 	nop
  200944:	d503201f 	nop
  200948:	d503201f 	nop
  20094c:	d503201f 	nop
  200950:	d503201f 	nop
  200954:	d503201f 	nop
  200958:	d503201f 	nop
  20095c:	d503201f 	nop
  200960:	d503201f 	nop
  200964:	d503201f 	nop
  200968:	d503201f 	nop
  20096c:	d503201f 	nop
  200970:	d503201f 	nop
  200974:	d503201f 	nop
  200978:	d503201f 	nop
  20097c:	d503201f 	nop
  200980:	a9bf7bfd 	stp	x29, x30, [sp,#-16]!
  200984:	94000082 	bl	200b8c <_exception_entry>
  200988:	140000ba 	b	200c70 <exception_exit>
  20098c:	d503201f 	nop
  200990:	d503201f 	nop
  200994:	d503201f 	nop
  200998:	d503201f 	nop
  20099c:	d503201f 	nop
  2009a0:	d503201f 	nop
  2009a4:	d503201f 	nop
  2009a8:	d503201f 	nop
  2009ac:	d503201f 	nop
  2009b0:	d503201f 	nop
  2009b4:	d503201f 	nop
  2009b8:	d503201f 	nop
  2009bc:	d503201f 	nop
  2009c0:	d503201f 	nop
  2009c4:	d503201f 	nop
  2009c8:	d503201f 	nop
  2009cc:	d503201f 	nop
  2009d0:	d503201f 	nop
  2009d4:	d503201f 	nop
  2009d8:	d503201f 	nop
  2009dc:	d503201f 	nop
  2009e0:	d503201f 	nop
  2009e4:	d503201f 	nop
  2009e8:	d503201f 	nop
  2009ec:	d503201f 	nop
  2009f0:	d503201f 	nop
  2009f4:	d503201f 	nop
  2009f8:	d503201f 	nop
  2009fc:	d503201f 	nop
  200a00:	a9bf7bfd 	stp	x29, x30, [sp,#-16]!
  200a04:	94000062 	bl	200b8c <_exception_entry>
  200a08:	1400009a 	b	200c70 <exception_exit>
  200a0c:	d503201f 	nop
  200a10:	d503201f 	nop
  200a14:	d503201f 	nop
  200a18:	d503201f 	nop
  200a1c:	d503201f 	nop
  200a20:	d503201f 	nop
  200a24:	d503201f 	nop
  200a28:	d503201f 	nop
  200a2c:	d503201f 	nop
  200a30:	d503201f 	nop
  200a34:	d503201f 	nop
  200a38:	d503201f 	nop
  200a3c:	d503201f 	nop
  200a40:	d503201f 	nop
  200a44:	d503201f 	nop
  200a48:	d503201f 	nop
  200a4c:	d503201f 	nop
  200a50:	d503201f 	nop
  200a54:	d503201f 	nop
  200a58:	d503201f 	nop
  200a5c:	d503201f 	nop
  200a60:	d503201f 	nop
  200a64:	d503201f 	nop
  200a68:	d503201f 	nop
  200a6c:	d503201f 	nop
  200a70:	d503201f 	nop
  200a74:	d503201f 	nop
  200a78:	d503201f 	nop
  200a7c:	d503201f 	nop
  200a80:	a9bf7bfd 	stp	x29, x30, [sp,#-16]!
  200a84:	94000042 	bl	200b8c <_exception_entry>
  200a88:	1400007a 	b	200c70 <exception_exit>
  200a8c:	d503201f 	nop
  200a90:	d503201f 	nop
  200a94:	d503201f 	nop
  200a98:	d503201f 	nop
  200a9c:	d503201f 	nop
  200aa0:	d503201f 	nop
  200aa4:	d503201f 	nop
  200aa8:	d503201f 	nop
  200aac:	d503201f 	nop
  200ab0:	d503201f 	nop
  200ab4:	d503201f 	nop
  200ab8:	d503201f 	nop
  200abc:	d503201f 	nop
  200ac0:	d503201f 	nop
  200ac4:	d503201f 	nop
  200ac8:	d503201f 	nop
  200acc:	d503201f 	nop
  200ad0:	d503201f 	nop
  200ad4:	d503201f 	nop
  200ad8:	d503201f 	nop
  200adc:	d503201f 	nop
  200ae0:	d503201f 	nop
  200ae4:	d503201f 	nop
  200ae8:	d503201f 	nop
  200aec:	d503201f 	nop
  200af0:	d503201f 	nop
  200af4:	d503201f 	nop
  200af8:	d503201f 	nop
  200afc:	d503201f 	nop
  200b00:	a9bf7bfd 	stp	x29, x30, [sp,#-16]!
  200b04:	94000022 	bl	200b8c <_exception_entry>
  200b08:	1400005a 	b	200c70 <exception_exit>
  200b0c:	d503201f 	nop
  200b10:	d503201f 	nop
  200b14:	d503201f 	nop
  200b18:	d503201f 	nop
  200b1c:	d503201f 	nop
  200b20:	d503201f 	nop
  200b24:	d503201f 	nop
  200b28:	d503201f 	nop
  200b2c:	d503201f 	nop
  200b30:	d503201f 	nop
  200b34:	d503201f 	nop
  200b38:	d503201f 	nop
  200b3c:	d503201f 	nop
  200b40:	d503201f 	nop
  200b44:	d503201f 	nop
  200b48:	d503201f 	nop
  200b4c:	d503201f 	nop
  200b50:	d503201f 	nop
  200b54:	d503201f 	nop
  200b58:	d503201f 	nop
  200b5c:	d503201f 	nop
  200b60:	d503201f 	nop
  200b64:	d503201f 	nop
  200b68:	d503201f 	nop
  200b6c:	d503201f 	nop
  200b70:	d503201f 	nop
  200b74:	d503201f 	nop
  200b78:	d503201f 	nop
  200b7c:	d503201f 	nop
  200b80:	a9bf7bfd 	stp	x29, x30, [sp,#-16]!
  200b84:	94000002 	bl	200b8c <_exception_entry>
  200b88:	1400003a 	b	200c70 <exception_exit>

0000000000200b8c <_exception_entry>:
  200b8c:	a9bf73fb 	stp	x27, x28, [sp,#-16]!
  200b90:	a9bf6bf9 	stp	x25, x26, [sp,#-16]!
  200b94:	a9bf63f7 	stp	x23, x24, [sp,#-16]!
  200b98:	a9bf5bf5 	stp	x21, x22, [sp,#-16]!
  200b9c:	a9bf53f3 	stp	x19, x20, [sp,#-16]!
  200ba0:	a9bf4bf1 	stp	x17, x18, [sp,#-16]!
  200ba4:	a9bf43ef 	stp	x15, x16, [sp,#-16]!
  200ba8:	a9bf3bed 	stp	x13, x14, [sp,#-16]!
  200bac:	a9bf33eb 	stp	x11, x12, [sp,#-16]!
  200bb0:	a9bf2be9 	stp	x9, x10, [sp,#-16]!
  200bb4:	a9bf23e7 	stp	x7, x8, [sp,#-16]!
  200bb8:	a9bf1be5 	stp	x5, x6, [sp,#-16]!
  200bbc:	a9bf13e3 	stp	x3, x4, [sp,#-16]!
  200bc0:	a9bf0be1 	stp	x1, x2, [sp,#-16]!
  200bc4:	d538424b 	mrs	x11, currentel
  200bc8:	f100317f 	cmp	x11, #0xc
  200bcc:	540000a0 	b.eq	200be0 <_exception_entry+0x54>
  200bd0:	f100217f 	cmp	x11, #0x8
  200bd4:	540001a0 	b.eq	200c08 <_exception_entry+0x7c>
  200bd8:	f100117f 	cmp	x11, #0x4
  200bdc:	540002a0 	b.eq	200c30 <_exception_entry+0xa4>
  200be0:	d53e5201 	mrs	x1, esr_el3
  200be4:	d53e4022 	mrs	x2, elr_el3
  200be8:	d53b4223 	mrs	x3, daif
  200bec:	d53ec004 	mrs	x4, vbar_el3
  200bf0:	d53e4005 	mrs	x5, spsr_el3
  200bf4:	d103c3e6 	sub	x6, sp, #0xf0
  200bf8:	d53e1007 	mrs	x7, sctlr_el3
  200bfc:	d53e1108 	mrs	x8, scr_el3
  200c00:	d53e2009 	mrs	x9, ttbr0_el3
  200c04:	14000014 	b	200c54 <_exception_entry+0xc8>
  200c08:	d53c5201 	mrs	x1, esr_el2
  200c0c:	d53c4022 	mrs	x2, elr_el2
  200c10:	d53b4223 	mrs	x3, daif
  200c14:	d53cc004 	mrs	x4, vbar_el2
  200c18:	d53c4005 	mrs	x5, spsr_el2
  200c1c:	d103c3e6 	sub	x6, sp, #0xf0
  200c20:	d53c1007 	mrs	x7, sctlr_el2
  200c24:	d53c1108 	mrs	x8, hcr_el2
  200c28:	d53c2009 	mrs	x9, ttbr0_el2
  200c2c:	1400000a 	b	200c54 <_exception_entry+0xc8>
  200c30:	d5385201 	mrs	x1, esr_el1
  200c34:	d5384022 	mrs	x2, elr_el1
  200c38:	d53b4223 	mrs	x3, daif
  200c3c:	d538c004 	mrs	x4, vbar_el1
  200c40:	d5384005 	mrs	x5, spsr_el1
  200c44:	d103c3e6 	sub	x6, sp, #0xf0
  200c48:	d5381007 	mrs	x7, sctlr_el1
  200c4c:	d2800008 	mov	x8, #0x0                   	// #0
  200c50:	d5382009 	mrs	x9, ttbr0_el1
  200c54:	a9bf03e2 	stp	x2, x0, [sp,#-16]!
  200c58:	a9bf07e3 	stp	x3, x1, [sp,#-16]!
  200c5c:	a9bf13e5 	stp	x5, x4, [sp,#-16]!
  200c60:	a9bf1be7 	stp	x7, x6, [sp,#-16]!
  200c64:	a9bf23e9 	stp	x9, x8, [sp,#-16]!
  200c68:	910003e0 	mov	x0, sp
  200c6c:	d65f03c0 	ret

0000000000200c70 <exception_exit>:
  200c70:	910103ff 	add	sp, sp, #0x40
  200c74:	a8c103e2 	ldp	x2, x0, [sp],#16
  200c78:	d538424b 	mrs	x11, currentel
  200c7c:	f100317f 	cmp	x11, #0xc
  200c80:	540000a0 	b.eq	200c94 <exception_exit+0x24>
  200c84:	f100217f 	cmp	x11, #0x8
  200c88:	540000a0 	b.eq	200c9c <exception_exit+0x2c>
  200c8c:	f100117f 	cmp	x11, #0x4
  200c90:	540000a0 	b.eq	200ca4 <exception_exit+0x34>
  200c94:	d51e4022 	msr	elr_el3, x2
  200c98:	14000004 	b	200ca8 <exception_exit+0x38>
  200c9c:	d51c4022 	msr	elr_el2, x2
  200ca0:	14000002 	b	200ca8 <exception_exit+0x38>
  200ca4:	d5184022 	msr	elr_el1, x2
  200ca8:	a8c10be1 	ldp	x1, x2, [sp],#16
  200cac:	a8c113e3 	ldp	x3, x4, [sp],#16
  200cb0:	a8c11be5 	ldp	x5, x6, [sp],#16
  200cb4:	a8c123e7 	ldp	x7, x8, [sp],#16
  200cb8:	a8c12be9 	ldp	x9, x10, [sp],#16
  200cbc:	a8c133eb 	ldp	x11, x12, [sp],#16
  200cc0:	a8c13bed 	ldp	x13, x14, [sp],#16
  200cc4:	a8c143ef 	ldp	x15, x16, [sp],#16
  200cc8:	a8c14bf1 	ldp	x17, x18, [sp],#16
  200ccc:	a8c153f3 	ldp	x19, x20, [sp],#16
  200cd0:	a8c15bf5 	ldp	x21, x22, [sp],#16
  200cd4:	a8c163f7 	ldp	x23, x24, [sp],#16
  200cd8:	a8c16bf9 	ldp	x25, x26, [sp],#16
  200cdc:	a8c173fb 	ldp	x27, x28, [sp],#16
  200ce0:	a8c17bfd 	ldp	x29, x30, [sp],#16
  200ce4:	d69f03e0 	eret

0000000000200ce8 <_main>:
  200ce8:	58000ac0 	ldr	x0, 200e40 <hang+0x20>
  200cec:	927cec1f 	and	sp, x0, #0xfffffffffffffff0
  200cf0:	9400005a 	bl	200e58 <main>
  200cf4:	f9404240 	ldr	x0, [x18,#128]
  200cf8:	927cec1f 	and	sp, x0, #0xfffffffffffffff0
  200cfc:	f9404a52 	ldr	x18, [x18,#144]
  200d00:	100000be 	adr	x30, 200d14 <relocation_return>
  200d04:	f9404649 	ldr	x9, [x18,#136]
  200d08:	8b0903de 	add	x30, x30, x9
  200d0c:	f9403240 	ldr	x0, [x18,#96]
  200d10:	14000007 	b	200d2c <relocate_code>

0000000000200d14 <relocation_return>:
  200d14:	97fffd05 	bl	200128 <c_runtime_cpu_setup>
  200d18:	58000980 	ldr	x0, 200e48 <hang+0x28>
  200d1c:	580009a1 	ldr	x1, 200e50 <hang+0x30>

0000000000200d20 <clear_loop>:
  200d20:	f800841f 	str	xzr, [x0],#8
  200d24:	eb01001f 	cmp	x0, x1
  200d28:	54ffffc3 	b.cc	200d20 <clear_loop>

0000000000200d2c <relocate_code>:
  200d2c:	a9be7bfd 	stp	x29, x30, [sp,#-32]!
  200d30:	910003fd 	mov	x29, sp
  200d34:	f9000be0 	str	x0, [sp,#16]
  200d38:	10ff9641 	adr	x1, 200000 <__image_copy_start>
  200d3c:	eb010009 	subs	x9, x0, x1
  200d40:	540002c0 	b.eq	200d98 <relocate_done>
  200d44:	58ff9621 	ldr	x1, 200008 <_TEXT_BASE>
  200d48:	eb010009 	subs	x9, x0, x1
  200d4c:	10ff95a1 	adr	x1, 200000 <__image_copy_start>
  200d50:	100014c2 	adr	x2, 200fe8 <__bss_start>

0000000000200d54 <copy_loop>:
  200d54:	a8c12c2a 	ldp	x10, x11, [x1],#16
  200d58:	a8812c0a 	stp	x10, x11, [x0],#16
  200d5c:	eb02003f 	cmp	x1, x2
  200d60:	54ffffa3 	b.cc	200d54 <copy_loop>
  200d64:	f9000fe0 	str	x0, [sp,#24]
  200d68:	10001402 	adr	x2, 200fe8 <__bss_start>
  200d6c:	100013e3 	adr	x3, 200fe8 <__bss_start>

0000000000200d70 <fixloop>:
  200d70:	a8c10440 	ldp	x0, x1, [x2],#16
  200d74:	f8408444 	ldr	x4, [x2],#8
  200d78:	92407c21 	and	x1, x1, #0xffffffff
  200d7c:	f1100c3f 	cmp	x1, #0x403
  200d80:	54000081 	b.ne	200d90 <fixnext>
  200d84:	8b090000 	add	x0, x0, x9
  200d88:	8b090084 	add	x4, x4, x9
  200d8c:	f9000004 	str	x4, [x0]

0000000000200d90 <fixnext>:
  200d90:	eb03005f 	cmp	x2, x3
  200d94:	54fffee3 	b.cc	200d70 <fixloop>

0000000000200d98 <relocate_done>:
  200d98:	d5384241 	mrs	x1, currentel
  200d9c:	f100303f 	cmp	x1, #0xc
  200da0:	540000c0 	b.eq	200db8 <relocate_done+0x20>
  200da4:	f100203f 	cmp	x1, #0x8
  200da8:	540000c0 	b.eq	200dc0 <relocate_done+0x28>
  200dac:	f100103f 	cmp	x1, #0x4
  200db0:	540000c0 	b.eq	200dc8 <relocate_done+0x30>
  200db4:	9400001b 	bl	200e20 <hang>
  200db8:	d53e1000 	mrs	x0, sctlr_el3
  200dbc:	14000004 	b	200dcc <relocate_done+0x34>
  200dc0:	d53c1000 	mrs	x0, sctlr_el2
  200dc4:	14000002 	b	200dcc <relocate_done+0x34>
  200dc8:	d5381000 	mrs	x0, sctlr_el1
  200dcc:	361000c0 	tbz	w0, #2, 200de4 <relocate_done+0x4c>
  200dd0:	36600060 	tbz	w0, #12, 200ddc <relocate_done+0x44>
  200dd4:	d508751f 	ic	iallu
  200dd8:	d5033fdf 	isb
  200ddc:	a94107e0 	ldp	x0, x1, [sp,#16]
  200de0:	94000003 	bl	200dec <__asm_flush_dcache_range>
  200de4:	a8c27bfd 	ldp	x29, x30, [sp],#32
  200de8:	d65f03c0 	ret

0000000000200dec <__asm_flush_dcache_range>:
  200dec:	d53b0023 	mrs	x3, ctr_el0
  200df0:	d350fc63 	lsr	x3, x3, #16
  200df4:	92400c63 	and	x3, x3, #0xf
  200df8:	d2800082 	mov	x2, #0x4                   	// #4
  200dfc:	9ac32042 	lsl	x2, x2, x3
  200e00:	d1000443 	sub	x3, x2, #0x1
  200e04:	8a230000 	bic	x0, x0, x3
  200e08:	d50b7e20 	dc	civac, x0
  200e0c:	8b020000 	add	x0, x0, x2
  200e10:	eb01001f 	cmp	x0, x1
  200e14:	54ffffa3 	b.cc	200e08 <__asm_flush_dcache_range+0x1c>
  200e18:	d5033f9f 	dsb	sy
  200e1c:	d65f03c0 	ret

0000000000200e20 <hang>:
  200e20:	94000000 	bl	200e20 <hang>
  200e24:	00000000 	.inst	0x00000000 ; undefined
  200e28:	016e3600 	.word	0x016e3600
  200e2c:	00000000 	.word	0x00000000
  200e30:	fee00000 	.word	0xfee00000
  200e34:	00000000 	.word	0x00000000
  200e38:	fef00000 	.word	0xfef00000
  200e3c:	00000000 	.word	0x00000000
  200e40:	00400000 	.word	0x00400000
  200e44:	00000000 	.word	0x00000000
  200e48:	00200fe8 	.word	0x00200fe8
  200e4c:	00000000 	.word	0x00000000
  200e50:	00201008 	.word	0x00201008
  200e54:	00000000 	.word	0x00000000

0000000000200e58 <main>:
  200e58:	a9bf7bfd 	stp	x29, x30, [sp,#-16]!
  200e5c:	910003fd 	mov	x29, sp
  200e60:	94000008 	bl	200e80 <led_init>
  200e64:	52800020 	mov	w0, #0x1                   	// #1
  200e68:	9400002f 	bl	200f24 <led_ctl>
  200e6c:	94000049 	bl	200f90 <led_delay>
  200e70:	52800000 	mov	w0, #0x0                   	// #0
  200e74:	9400002c 	bl	200f24 <led_ctl>
  200e78:	94000046 	bl	200f90 <led_delay>
  200e7c:	17fffffa 	b	200e64 <main+0xc>

0000000000200e80 <led_init>:
  200e80:	90000000 	adrp	x0, 200000 <__image_copy_start>
  200e84:	913fa000 	add	x0, x0, #0xfe8
  200e88:	d2806f81 	mov	x1, #0x37c                 	// #892
  200e8c:	f2bfeec1 	movk	x1, #0xff76, lsl #16
  200e90:	f9000001 	str	x1, [x0]
  200e94:	90000000 	adrp	x0, 200000 <__image_copy_start>
  200e98:	913fc000 	add	x0, x0, #0xff0
  200e9c:	d29c0381 	mov	x1, #0xe01c                	// #57372
  200ea0:	f2bfeee1 	movk	x1, #0xff77, lsl #16
  200ea4:	f9000001 	str	x1, [x0]
  200ea8:	90000000 	adrp	x0, 200000 <__image_copy_start>
  200eac:	913fe000 	add	x0, x0, #0xff8
  200eb0:	d2900001 	mov	x1, #0x8000                	// #32768
  200eb4:	f2bfef01 	movk	x1, #0xff78, lsl #16
  200eb8:	f9000001 	str	x1, [x0]
  200ebc:	b0000000 	adrp	x0, 201000 <GPIO3_SWPORTA_DDR>
  200ec0:	91000000 	add	x0, x0, #0x0
  200ec4:	d2900081 	mov	x1, #0x8004                	// #32772
  200ec8:	f2bfef01 	movk	x1, #0xff78, lsl #16
  200ecc:	f9000001 	str	x1, [x0]
  200ed0:	90000000 	adrp	x0, 200000 <__image_copy_start>
  200ed4:	913fa000 	add	x0, x0, #0xfe8
  200ed8:	f9400000 	ldr	x0, [x0]
  200edc:	52a00201 	mov	w1, #0x100000              	// #1048576
  200ee0:	b9000001 	str	w1, [x0]
  200ee4:	90000000 	adrp	x0, 200000 <__image_copy_start>
  200ee8:	913fc000 	add	x0, x0, #0xff0
  200eec:	f9400000 	ldr	x0, [x0]
  200ef0:	52a18001 	mov	w1, #0xc000000             	// #201326592
  200ef4:	b9000001 	str	w1, [x0]
  200ef8:	b0000000 	adrp	x0, 201000 <GPIO3_SWPORTA_DDR>
  200efc:	91000000 	add	x0, x0, #0x0
  200f00:	f9400000 	ldr	x0, [x0]
  200f04:	b0000001 	adrp	x1, 201000 <GPIO3_SWPORTA_DDR>
  200f08:	91000021 	add	x1, x1, #0x0
  200f0c:	f9400021 	ldr	x1, [x1]
  200f10:	b9400021 	ldr	w1, [x1]
  200f14:	32030021 	orr	w1, w1, #0x20000000
  200f18:	b9000001 	str	w1, [x0]
  200f1c:	d503201f 	nop
  200f20:	d65f03c0 	ret

0000000000200f24 <led_ctl>:
  200f24:	d10043ff 	sub	sp, sp, #0x10
  200f28:	b9000fe0 	str	w0, [sp,#12]
  200f2c:	b9400fe0 	ldr	w0, [sp,#12]
  200f30:	7100001f 	cmp	w0, #0x0
  200f34:	54000160 	b.eq	200f60 <led_ctl+0x3c>
  200f38:	90000000 	adrp	x0, 200000 <__image_copy_start>
  200f3c:	913fe000 	add	x0, x0, #0xff8
  200f40:	f9400000 	ldr	x0, [x0]
  200f44:	90000001 	adrp	x1, 200000 <__image_copy_start>
  200f48:	913fe021 	add	x1, x1, #0xff8
  200f4c:	f9400021 	ldr	x1, [x1]
  200f50:	b9400021 	ldr	w1, [x1]
  200f54:	32030021 	orr	w1, w1, #0x20000000
  200f58:	b9000001 	str	w1, [x0]
  200f5c:	1400000a 	b	200f84 <led_ctl+0x60>
  200f60:	90000000 	adrp	x0, 200000 <__image_copy_start>
  200f64:	913fe000 	add	x0, x0, #0xff8
  200f68:	f9400000 	ldr	x0, [x0]
  200f6c:	90000001 	adrp	x1, 200000 <__image_copy_start>
  200f70:	913fe021 	add	x1, x1, #0xff8
  200f74:	f9400021 	ldr	x1, [x1]
  200f78:	b9400021 	ldr	w1, [x1]
  200f7c:	12027821 	and	w1, w1, #0xdfffffff
  200f80:	b9000001 	str	w1, [x0]
  200f84:	d503201f 	nop
  200f88:	910043ff 	add	sp, sp, #0x10
  200f8c:	d65f03c0 	ret

0000000000200f90 <led_delay>:
  200f90:	d10043ff 	sub	sp, sp, #0x10
  200f94:	f90007ff 	str	xzr, [sp,#8]
  200f98:	1400000e 	b	200fd0 <led_delay+0x40>
  200f9c:	f90003ff 	str	xzr, [sp]
  200fa0:	14000004 	b	200fb0 <led_delay+0x20>
  200fa4:	f94003e0 	ldr	x0, [sp]
  200fa8:	91000400 	add	x0, x0, #0x1
  200fac:	f90003e0 	str	x0, [sp]
  200fb0:	f94003e1 	ldr	x1, [sp]
  200fb4:	d290d3e0 	mov	x0, #0x869f                	// #34463
  200fb8:	f2a00020 	movk	x0, #0x1, lsl #16
  200fbc:	eb00003f 	cmp	x1, x0
  200fc0:	54ffff29 	b.ls	200fa4 <led_delay+0x14>
  200fc4:	f94007e0 	ldr	x0, [sp,#8]
  200fc8:	91000400 	add	x0, x0, #0x1
  200fcc:	f90007e0 	str	x0, [sp,#8]
  200fd0:	f94007e0 	ldr	x0, [sp,#8]
  200fd4:	f100241f 	cmp	x0, #0x9
  200fd8:	54fffe29 	b.ls	200f9c <led_delay+0xc>
  200fdc:	d503201f 	nop
  200fe0:	910043ff 	add	sp, sp, #0x10
  200fe4:	d65f03c0 	ret
